
exe/recordingLight.elf:     file format elf32-littlearm


Disassembly of section .text:

080000c4 <__aeabi_uidiv>:
 80000c4:	2900      	cmp	r1, #0
 80000c6:	d034      	beq.n	8000132 <.udivsi3_skip_div0_test+0x6a>

080000c8 <.udivsi3_skip_div0_test>:
 80000c8:	2301      	movs	r3, #1
 80000ca:	2200      	movs	r2, #0
 80000cc:	b410      	push	{r4}
 80000ce:	4288      	cmp	r0, r1
 80000d0:	d32c      	bcc.n	800012c <.udivsi3_skip_div0_test+0x64>
 80000d2:	2401      	movs	r4, #1
 80000d4:	0724      	lsls	r4, r4, #28
 80000d6:	42a1      	cmp	r1, r4
 80000d8:	d204      	bcs.n	80000e4 <.udivsi3_skip_div0_test+0x1c>
 80000da:	4281      	cmp	r1, r0
 80000dc:	d202      	bcs.n	80000e4 <.udivsi3_skip_div0_test+0x1c>
 80000de:	0109      	lsls	r1, r1, #4
 80000e0:	011b      	lsls	r3, r3, #4
 80000e2:	e7f8      	b.n	80000d6 <.udivsi3_skip_div0_test+0xe>
 80000e4:	00e4      	lsls	r4, r4, #3
 80000e6:	42a1      	cmp	r1, r4
 80000e8:	d204      	bcs.n	80000f4 <.udivsi3_skip_div0_test+0x2c>
 80000ea:	4281      	cmp	r1, r0
 80000ec:	d202      	bcs.n	80000f4 <.udivsi3_skip_div0_test+0x2c>
 80000ee:	0049      	lsls	r1, r1, #1
 80000f0:	005b      	lsls	r3, r3, #1
 80000f2:	e7f8      	b.n	80000e6 <.udivsi3_skip_div0_test+0x1e>
 80000f4:	4288      	cmp	r0, r1
 80000f6:	d301      	bcc.n	80000fc <.udivsi3_skip_div0_test+0x34>
 80000f8:	1a40      	subs	r0, r0, r1
 80000fa:	431a      	orrs	r2, r3
 80000fc:	084c      	lsrs	r4, r1, #1
 80000fe:	42a0      	cmp	r0, r4
 8000100:	d302      	bcc.n	8000108 <.udivsi3_skip_div0_test+0x40>
 8000102:	1b00      	subs	r0, r0, r4
 8000104:	085c      	lsrs	r4, r3, #1
 8000106:	4322      	orrs	r2, r4
 8000108:	088c      	lsrs	r4, r1, #2
 800010a:	42a0      	cmp	r0, r4
 800010c:	d302      	bcc.n	8000114 <.udivsi3_skip_div0_test+0x4c>
 800010e:	1b00      	subs	r0, r0, r4
 8000110:	089c      	lsrs	r4, r3, #2
 8000112:	4322      	orrs	r2, r4
 8000114:	08cc      	lsrs	r4, r1, #3
 8000116:	42a0      	cmp	r0, r4
 8000118:	d302      	bcc.n	8000120 <.udivsi3_skip_div0_test+0x58>
 800011a:	1b00      	subs	r0, r0, r4
 800011c:	08dc      	lsrs	r4, r3, #3
 800011e:	4322      	orrs	r2, r4
 8000120:	2800      	cmp	r0, #0
 8000122:	d003      	beq.n	800012c <.udivsi3_skip_div0_test+0x64>
 8000124:	091b      	lsrs	r3, r3, #4
 8000126:	d001      	beq.n	800012c <.udivsi3_skip_div0_test+0x64>
 8000128:	0909      	lsrs	r1, r1, #4
 800012a:	e7e3      	b.n	80000f4 <.udivsi3_skip_div0_test+0x2c>
 800012c:	1c10      	adds	r0, r2, #0
 800012e:	bc10      	pop	{r4}
 8000130:	4770      	bx	lr
 8000132:	2800      	cmp	r0, #0
 8000134:	d001      	beq.n	800013a <.udivsi3_skip_div0_test+0x72>
 8000136:	2000      	movs	r0, #0
 8000138:	43c0      	mvns	r0, r0
 800013a:	b407      	push	{r0, r1, r2}
 800013c:	4802      	ldr	r0, [pc, #8]	; (8000148 <.udivsi3_skip_div0_test+0x80>)
 800013e:	a102      	add	r1, pc, #8	; (adr r1, 8000148 <.udivsi3_skip_div0_test+0x80>)
 8000140:	1840      	adds	r0, r0, r1
 8000142:	9002      	str	r0, [sp, #8]
 8000144:	bd03      	pop	{r0, r1, pc}
 8000146:	46c0      	nop			; (mov r8, r8)
 8000148:	00000019 	.word	0x00000019

0800014c <__aeabi_uidivmod>:
 800014c:	2900      	cmp	r1, #0
 800014e:	d0f0      	beq.n	8000132 <.udivsi3_skip_div0_test+0x6a>
 8000150:	b503      	push	{r0, r1, lr}
 8000152:	f7ff ffb9 	bl	80000c8 <.udivsi3_skip_div0_test>
 8000156:	bc0e      	pop	{r1, r2, r3}
 8000158:	4342      	muls	r2, r0
 800015a:	1a89      	subs	r1, r1, r2
 800015c:	4718      	bx	r3
 800015e:	46c0      	nop			; (mov r8, r8)

08000160 <__aeabi_idiv0>:
 8000160:	4770      	bx	lr
 8000162:	46c0      	nop			; (mov r8, r8)

08000164 <Reset_Handler>:
 8000164:	2100      	movs	r1, #0
 8000166:	e003      	b.n	8000170 <LoopCopyDataInit>

08000168 <CopyDataInit>:
 8000168:	4b0b      	ldr	r3, [pc, #44]	; (8000198 <LoopFillZerobss+0x12>)
 800016a:	585b      	ldr	r3, [r3, r1]
 800016c:	5043      	str	r3, [r0, r1]
 800016e:	3104      	adds	r1, #4

08000170 <LoopCopyDataInit>:
 8000170:	480a      	ldr	r0, [pc, #40]	; (800019c <LoopFillZerobss+0x16>)
 8000172:	4b0b      	ldr	r3, [pc, #44]	; (80001a0 <LoopFillZerobss+0x1a>)
 8000174:	1842      	adds	r2, r0, r1
 8000176:	429a      	cmp	r2, r3
 8000178:	d3f6      	bcc.n	8000168 <CopyDataInit>
 800017a:	4a0a      	ldr	r2, [pc, #40]	; (80001a4 <LoopFillZerobss+0x1e>)
 800017c:	e003      	b.n	8000186 <LoopFillZerobss>

0800017e <FillZerobss>:
 800017e:	2300      	movs	r3, #0
 8000180:	6013      	str	r3, [r2, #0]
 8000182:	2304      	movs	r3, #4
 8000184:	18d2      	adds	r2, r2, r3

08000186 <LoopFillZerobss>:
 8000186:	4b08      	ldr	r3, [pc, #32]	; (80001a8 <LoopFillZerobss+0x22>)
 8000188:	429a      	cmp	r2, r3
 800018a:	d3f8      	bcc.n	800017e <FillZerobss>
 800018c:	f000 f810 	bl	80001b0 <SystemInit>
 8000190:	f002 faa0 	bl	80026d4 <main>
 8000194:	4770      	bx	lr
 8000196:	0000      	.short	0x0000
 8000198:	08003adc 	.word	0x08003adc
 800019c:	20000000 	.word	0x20000000
 80001a0:	20000010 	.word	0x20000010
 80001a4:	20000010 	.word	0x20000010
 80001a8:	20000138 	.word	0x20000138

080001ac <ADC1_COMP_IRQHandler>:
 80001ac:	e7fe      	b.n	80001ac <ADC1_COMP_IRQHandler>
	...

080001b0 <SystemInit>:
 80001b0:	b580      	push	{r7, lr}
 80001b2:	af00      	add	r7, sp, #0
 80001b4:	4b1b      	ldr	r3, [pc, #108]	; (8000224 <SystemInit+0x74>)
 80001b6:	4a1b      	ldr	r2, [pc, #108]	; (8000224 <SystemInit+0x74>)
 80001b8:	6812      	ldr	r2, [r2, #0]
 80001ba:	2101      	movs	r1, #1
 80001bc:	430a      	orrs	r2, r1
 80001be:	601a      	str	r2, [r3, #0]
 80001c0:	4b18      	ldr	r3, [pc, #96]	; (8000224 <SystemInit+0x74>)
 80001c2:	4a18      	ldr	r2, [pc, #96]	; (8000224 <SystemInit+0x74>)
 80001c4:	6851      	ldr	r1, [r2, #4]
 80001c6:	4a18      	ldr	r2, [pc, #96]	; (8000228 <SystemInit+0x78>)
 80001c8:	400a      	ands	r2, r1
 80001ca:	605a      	str	r2, [r3, #4]
 80001cc:	4b15      	ldr	r3, [pc, #84]	; (8000224 <SystemInit+0x74>)
 80001ce:	4a15      	ldr	r2, [pc, #84]	; (8000224 <SystemInit+0x74>)
 80001d0:	6811      	ldr	r1, [r2, #0]
 80001d2:	4a16      	ldr	r2, [pc, #88]	; (800022c <SystemInit+0x7c>)
 80001d4:	400a      	ands	r2, r1
 80001d6:	601a      	str	r2, [r3, #0]
 80001d8:	4b12      	ldr	r3, [pc, #72]	; (8000224 <SystemInit+0x74>)
 80001da:	4a12      	ldr	r2, [pc, #72]	; (8000224 <SystemInit+0x74>)
 80001dc:	6811      	ldr	r1, [r2, #0]
 80001de:	4a14      	ldr	r2, [pc, #80]	; (8000230 <SystemInit+0x80>)
 80001e0:	400a      	ands	r2, r1
 80001e2:	601a      	str	r2, [r3, #0]
 80001e4:	4b0f      	ldr	r3, [pc, #60]	; (8000224 <SystemInit+0x74>)
 80001e6:	4a0f      	ldr	r2, [pc, #60]	; (8000224 <SystemInit+0x74>)
 80001e8:	6851      	ldr	r1, [r2, #4]
 80001ea:	4a12      	ldr	r2, [pc, #72]	; (8000234 <SystemInit+0x84>)
 80001ec:	400a      	ands	r2, r1
 80001ee:	605a      	str	r2, [r3, #4]
 80001f0:	4b0c      	ldr	r3, [pc, #48]	; (8000224 <SystemInit+0x74>)
 80001f2:	4a0c      	ldr	r2, [pc, #48]	; (8000224 <SystemInit+0x74>)
 80001f4:	6ad2      	ldr	r2, [r2, #44]	; 0x2c
 80001f6:	210f      	movs	r1, #15
 80001f8:	438a      	bics	r2, r1
 80001fa:	62da      	str	r2, [r3, #44]	; 0x2c
 80001fc:	4b09      	ldr	r3, [pc, #36]	; (8000224 <SystemInit+0x74>)
 80001fe:	4a09      	ldr	r2, [pc, #36]	; (8000224 <SystemInit+0x74>)
 8000200:	6b11      	ldr	r1, [r2, #48]	; 0x30
 8000202:	4a0d      	ldr	r2, [pc, #52]	; (8000238 <SystemInit+0x88>)
 8000204:	400a      	ands	r2, r1
 8000206:	631a      	str	r2, [r3, #48]	; 0x30
 8000208:	4b06      	ldr	r3, [pc, #24]	; (8000224 <SystemInit+0x74>)
 800020a:	4a06      	ldr	r2, [pc, #24]	; (8000224 <SystemInit+0x74>)
 800020c:	6b52      	ldr	r2, [r2, #52]	; 0x34
 800020e:	2101      	movs	r1, #1
 8000210:	438a      	bics	r2, r1
 8000212:	635a      	str	r2, [r3, #52]	; 0x34
 8000214:	4b03      	ldr	r3, [pc, #12]	; (8000224 <SystemInit+0x74>)
 8000216:	2200      	movs	r2, #0
 8000218:	609a      	str	r2, [r3, #8]
 800021a:	f000 f80f 	bl	800023c <SetSysClock>
 800021e:	46bd      	mov	sp, r7
 8000220:	bd80      	pop	{r7, pc}
 8000222:	46c0      	nop			; (mov r8, r8)
 8000224:	40021000 	.word	0x40021000
 8000228:	f8ffb80c 	.word	0xf8ffb80c
 800022c:	fef6ffff 	.word	0xfef6ffff
 8000230:	fffbffff 	.word	0xfffbffff
 8000234:	ffc0ffff 	.word	0xffc0ffff
 8000238:	fffffeac 	.word	0xfffffeac

0800023c <SetSysClock>:
 800023c:	b580      	push	{r7, lr}
 800023e:	b082      	sub	sp, #8
 8000240:	af00      	add	r7, sp, #0
 8000242:	2300      	movs	r3, #0
 8000244:	607b      	str	r3, [r7, #4]
 8000246:	2300      	movs	r3, #0
 8000248:	603b      	str	r3, [r7, #0]
 800024a:	4b31      	ldr	r3, [pc, #196]	; (8000310 <SetSysClock+0xd4>)
 800024c:	4a30      	ldr	r2, [pc, #192]	; (8000310 <SetSysClock+0xd4>)
 800024e:	6812      	ldr	r2, [r2, #0]
 8000250:	2180      	movs	r1, #128	; 0x80
 8000252:	0249      	lsls	r1, r1, #9
 8000254:	430a      	orrs	r2, r1
 8000256:	601a      	str	r2, [r3, #0]
 8000258:	4b2d      	ldr	r3, [pc, #180]	; (8000310 <SetSysClock+0xd4>)
 800025a:	681a      	ldr	r2, [r3, #0]
 800025c:	2380      	movs	r3, #128	; 0x80
 800025e:	029b      	lsls	r3, r3, #10
 8000260:	4013      	ands	r3, r2
 8000262:	603b      	str	r3, [r7, #0]
 8000264:	687b      	ldr	r3, [r7, #4]
 8000266:	3301      	adds	r3, #1
 8000268:	607b      	str	r3, [r7, #4]
 800026a:	683b      	ldr	r3, [r7, #0]
 800026c:	2b00      	cmp	r3, #0
 800026e:	d104      	bne.n	800027a <SetSysClock+0x3e>
 8000270:	687a      	ldr	r2, [r7, #4]
 8000272:	23a0      	movs	r3, #160	; 0xa0
 8000274:	00db      	lsls	r3, r3, #3
 8000276:	429a      	cmp	r2, r3
 8000278:	d1ee      	bne.n	8000258 <SetSysClock+0x1c>
 800027a:	4b25      	ldr	r3, [pc, #148]	; (8000310 <SetSysClock+0xd4>)
 800027c:	681a      	ldr	r2, [r3, #0]
 800027e:	2380      	movs	r3, #128	; 0x80
 8000280:	029b      	lsls	r3, r3, #10
 8000282:	4013      	ands	r3, r2
 8000284:	d002      	beq.n	800028c <SetSysClock+0x50>
 8000286:	2301      	movs	r3, #1
 8000288:	603b      	str	r3, [r7, #0]
 800028a:	e001      	b.n	8000290 <SetSysClock+0x54>
 800028c:	2300      	movs	r3, #0
 800028e:	603b      	str	r3, [r7, #0]
 8000290:	683b      	ldr	r3, [r7, #0]
 8000292:	2b01      	cmp	r3, #1
 8000294:	d138      	bne.n	8000308 <SetSysClock+0xcc>
 8000296:	4b1f      	ldr	r3, [pc, #124]	; (8000314 <SetSysClock+0xd8>)
 8000298:	2211      	movs	r2, #17
 800029a:	601a      	str	r2, [r3, #0]
 800029c:	4b1c      	ldr	r3, [pc, #112]	; (8000310 <SetSysClock+0xd4>)
 800029e:	4a1c      	ldr	r2, [pc, #112]	; (8000310 <SetSysClock+0xd4>)
 80002a0:	6852      	ldr	r2, [r2, #4]
 80002a2:	605a      	str	r2, [r3, #4]
 80002a4:	4b1a      	ldr	r3, [pc, #104]	; (8000310 <SetSysClock+0xd4>)
 80002a6:	4a1a      	ldr	r2, [pc, #104]	; (8000310 <SetSysClock+0xd4>)
 80002a8:	6852      	ldr	r2, [r2, #4]
 80002aa:	605a      	str	r2, [r3, #4]
 80002ac:	4b18      	ldr	r3, [pc, #96]	; (8000310 <SetSysClock+0xd4>)
 80002ae:	4a18      	ldr	r2, [pc, #96]	; (8000310 <SetSysClock+0xd4>)
 80002b0:	6851      	ldr	r1, [r2, #4]
 80002b2:	4a19      	ldr	r2, [pc, #100]	; (8000318 <SetSysClock+0xdc>)
 80002b4:	400a      	ands	r2, r1
 80002b6:	605a      	str	r2, [r3, #4]
 80002b8:	4b15      	ldr	r3, [pc, #84]	; (8000310 <SetSysClock+0xd4>)
 80002ba:	4a15      	ldr	r2, [pc, #84]	; (8000310 <SetSysClock+0xd4>)
 80002bc:	6852      	ldr	r2, [r2, #4]
 80002be:	2188      	movs	r1, #136	; 0x88
 80002c0:	0349      	lsls	r1, r1, #13
 80002c2:	430a      	orrs	r2, r1
 80002c4:	605a      	str	r2, [r3, #4]
 80002c6:	4b12      	ldr	r3, [pc, #72]	; (8000310 <SetSysClock+0xd4>)
 80002c8:	4a11      	ldr	r2, [pc, #68]	; (8000310 <SetSysClock+0xd4>)
 80002ca:	6812      	ldr	r2, [r2, #0]
 80002cc:	2180      	movs	r1, #128	; 0x80
 80002ce:	0449      	lsls	r1, r1, #17
 80002d0:	430a      	orrs	r2, r1
 80002d2:	601a      	str	r2, [r3, #0]
 80002d4:	46c0      	nop			; (mov r8, r8)
 80002d6:	4b0e      	ldr	r3, [pc, #56]	; (8000310 <SetSysClock+0xd4>)
 80002d8:	681a      	ldr	r2, [r3, #0]
 80002da:	2380      	movs	r3, #128	; 0x80
 80002dc:	049b      	lsls	r3, r3, #18
 80002de:	4013      	ands	r3, r2
 80002e0:	d0f9      	beq.n	80002d6 <SetSysClock+0x9a>
 80002e2:	4b0b      	ldr	r3, [pc, #44]	; (8000310 <SetSysClock+0xd4>)
 80002e4:	4a0a      	ldr	r2, [pc, #40]	; (8000310 <SetSysClock+0xd4>)
 80002e6:	6852      	ldr	r2, [r2, #4]
 80002e8:	2103      	movs	r1, #3
 80002ea:	438a      	bics	r2, r1
 80002ec:	605a      	str	r2, [r3, #4]
 80002ee:	4b08      	ldr	r3, [pc, #32]	; (8000310 <SetSysClock+0xd4>)
 80002f0:	4a07      	ldr	r2, [pc, #28]	; (8000310 <SetSysClock+0xd4>)
 80002f2:	6852      	ldr	r2, [r2, #4]
 80002f4:	2102      	movs	r1, #2
 80002f6:	430a      	orrs	r2, r1
 80002f8:	605a      	str	r2, [r3, #4]
 80002fa:	46c0      	nop			; (mov r8, r8)
 80002fc:	4b04      	ldr	r3, [pc, #16]	; (8000310 <SetSysClock+0xd4>)
 80002fe:	685a      	ldr	r2, [r3, #4]
 8000300:	230c      	movs	r3, #12
 8000302:	4013      	ands	r3, r2
 8000304:	2b08      	cmp	r3, #8
 8000306:	d1f9      	bne.n	80002fc <SetSysClock+0xc0>
 8000308:	46bd      	mov	sp, r7
 800030a:	b002      	add	sp, #8
 800030c:	bd80      	pop	{r7, pc}
 800030e:	46c0      	nop			; (mov r8, r8)
 8000310:	40021000 	.word	0x40021000
 8000314:	40022000 	.word	0x40022000
 8000318:	ffc0ffff 	.word	0xffc0ffff

0800031c <RCC_GetClocksFreq>:
 800031c:	b580      	push	{r7, lr}
 800031e:	b088      	sub	sp, #32
 8000320:	af00      	add	r7, sp, #0
 8000322:	6078      	str	r0, [r7, #4]
 8000324:	2300      	movs	r3, #0
 8000326:	61fb      	str	r3, [r7, #28]
 8000328:	2300      	movs	r3, #0
 800032a:	61bb      	str	r3, [r7, #24]
 800032c:	2300      	movs	r3, #0
 800032e:	617b      	str	r3, [r7, #20]
 8000330:	2300      	movs	r3, #0
 8000332:	613b      	str	r3, [r7, #16]
 8000334:	2300      	movs	r3, #0
 8000336:	60fb      	str	r3, [r7, #12]
 8000338:	4b65      	ldr	r3, [pc, #404]	; (80004d0 <RCC_GetClocksFreq+0x1b4>)
 800033a:	685a      	ldr	r2, [r3, #4]
 800033c:	230c      	movs	r3, #12
 800033e:	4013      	ands	r3, r2
 8000340:	61fb      	str	r3, [r7, #28]
 8000342:	69fb      	ldr	r3, [r7, #28]
 8000344:	2b04      	cmp	r3, #4
 8000346:	d007      	beq.n	8000358 <RCC_GetClocksFreq+0x3c>
 8000348:	2b08      	cmp	r3, #8
 800034a:	d009      	beq.n	8000360 <RCC_GetClocksFreq+0x44>
 800034c:	2b00      	cmp	r3, #0
 800034e:	d130      	bne.n	80003b2 <RCC_GetClocksFreq+0x96>
 8000350:	687b      	ldr	r3, [r7, #4]
 8000352:	4a60      	ldr	r2, [pc, #384]	; (80004d4 <RCC_GetClocksFreq+0x1b8>)
 8000354:	601a      	str	r2, [r3, #0]
 8000356:	e030      	b.n	80003ba <RCC_GetClocksFreq+0x9e>
 8000358:	687b      	ldr	r3, [r7, #4]
 800035a:	4a5e      	ldr	r2, [pc, #376]	; (80004d4 <RCC_GetClocksFreq+0x1b8>)
 800035c:	601a      	str	r2, [r3, #0]
 800035e:	e02c      	b.n	80003ba <RCC_GetClocksFreq+0x9e>
 8000360:	4b5b      	ldr	r3, [pc, #364]	; (80004d0 <RCC_GetClocksFreq+0x1b4>)
 8000362:	685a      	ldr	r2, [r3, #4]
 8000364:	23f0      	movs	r3, #240	; 0xf0
 8000366:	039b      	lsls	r3, r3, #14
 8000368:	4013      	ands	r3, r2
 800036a:	61bb      	str	r3, [r7, #24]
 800036c:	4b58      	ldr	r3, [pc, #352]	; (80004d0 <RCC_GetClocksFreq+0x1b4>)
 800036e:	685a      	ldr	r2, [r3, #4]
 8000370:	2380      	movs	r3, #128	; 0x80
 8000372:	025b      	lsls	r3, r3, #9
 8000374:	4013      	ands	r3, r2
 8000376:	617b      	str	r3, [r7, #20]
 8000378:	69bb      	ldr	r3, [r7, #24]
 800037a:	0c9b      	lsrs	r3, r3, #18
 800037c:	3302      	adds	r3, #2
 800037e:	61bb      	str	r3, [r7, #24]
 8000380:	697b      	ldr	r3, [r7, #20]
 8000382:	2b00      	cmp	r3, #0
 8000384:	d105      	bne.n	8000392 <RCC_GetClocksFreq+0x76>
 8000386:	69bb      	ldr	r3, [r7, #24]
 8000388:	4a53      	ldr	r2, [pc, #332]	; (80004d8 <RCC_GetClocksFreq+0x1bc>)
 800038a:	435a      	muls	r2, r3
 800038c:	687b      	ldr	r3, [r7, #4]
 800038e:	601a      	str	r2, [r3, #0]
 8000390:	e013      	b.n	80003ba <RCC_GetClocksFreq+0x9e>
 8000392:	4b4f      	ldr	r3, [pc, #316]	; (80004d0 <RCC_GetClocksFreq+0x1b4>)
 8000394:	6ada      	ldr	r2, [r3, #44]	; 0x2c
 8000396:	230f      	movs	r3, #15
 8000398:	4013      	ands	r3, r2
 800039a:	3301      	adds	r3, #1
 800039c:	613b      	str	r3, [r7, #16]
 800039e:	484d      	ldr	r0, [pc, #308]	; (80004d4 <RCC_GetClocksFreq+0x1b8>)
 80003a0:	6939      	ldr	r1, [r7, #16]
 80003a2:	f7ff fe8f 	bl	80000c4 <__aeabi_uidiv>
 80003a6:	1c03      	adds	r3, r0, #0
 80003a8:	69ba      	ldr	r2, [r7, #24]
 80003aa:	435a      	muls	r2, r3
 80003ac:	687b      	ldr	r3, [r7, #4]
 80003ae:	601a      	str	r2, [r3, #0]
 80003b0:	e003      	b.n	80003ba <RCC_GetClocksFreq+0x9e>
 80003b2:	687b      	ldr	r3, [r7, #4]
 80003b4:	4a47      	ldr	r2, [pc, #284]	; (80004d4 <RCC_GetClocksFreq+0x1b8>)
 80003b6:	601a      	str	r2, [r3, #0]
 80003b8:	46c0      	nop			; (mov r8, r8)
 80003ba:	4b45      	ldr	r3, [pc, #276]	; (80004d0 <RCC_GetClocksFreq+0x1b4>)
 80003bc:	685a      	ldr	r2, [r3, #4]
 80003be:	23f0      	movs	r3, #240	; 0xf0
 80003c0:	4013      	ands	r3, r2
 80003c2:	61fb      	str	r3, [r7, #28]
 80003c4:	69fb      	ldr	r3, [r7, #28]
 80003c6:	091b      	lsrs	r3, r3, #4
 80003c8:	61fb      	str	r3, [r7, #28]
 80003ca:	4a44      	ldr	r2, [pc, #272]	; (80004dc <RCC_GetClocksFreq+0x1c0>)
 80003cc:	69fb      	ldr	r3, [r7, #28]
 80003ce:	18d3      	adds	r3, r2, r3
 80003d0:	781b      	ldrb	r3, [r3, #0]
 80003d2:	b2db      	uxtb	r3, r3
 80003d4:	60fb      	str	r3, [r7, #12]
 80003d6:	687b      	ldr	r3, [r7, #4]
 80003d8:	681a      	ldr	r2, [r3, #0]
 80003da:	68fb      	ldr	r3, [r7, #12]
 80003dc:	40da      	lsrs	r2, r3
 80003de:	687b      	ldr	r3, [r7, #4]
 80003e0:	605a      	str	r2, [r3, #4]
 80003e2:	4b3b      	ldr	r3, [pc, #236]	; (80004d0 <RCC_GetClocksFreq+0x1b4>)
 80003e4:	685a      	ldr	r2, [r3, #4]
 80003e6:	23e0      	movs	r3, #224	; 0xe0
 80003e8:	00db      	lsls	r3, r3, #3
 80003ea:	4013      	ands	r3, r2
 80003ec:	61fb      	str	r3, [r7, #28]
 80003ee:	69fb      	ldr	r3, [r7, #28]
 80003f0:	0a1b      	lsrs	r3, r3, #8
 80003f2:	61fb      	str	r3, [r7, #28]
 80003f4:	4a39      	ldr	r2, [pc, #228]	; (80004dc <RCC_GetClocksFreq+0x1c0>)
 80003f6:	69fb      	ldr	r3, [r7, #28]
 80003f8:	18d3      	adds	r3, r2, r3
 80003fa:	781b      	ldrb	r3, [r3, #0]
 80003fc:	b2db      	uxtb	r3, r3
 80003fe:	60fb      	str	r3, [r7, #12]
 8000400:	687b      	ldr	r3, [r7, #4]
 8000402:	685a      	ldr	r2, [r3, #4]
 8000404:	68fb      	ldr	r3, [r7, #12]
 8000406:	40da      	lsrs	r2, r3
 8000408:	687b      	ldr	r3, [r7, #4]
 800040a:	609a      	str	r2, [r3, #8]
 800040c:	4b30      	ldr	r3, [pc, #192]	; (80004d0 <RCC_GetClocksFreq+0x1b4>)
 800040e:	6b1a      	ldr	r2, [r3, #48]	; 0x30
 8000410:	2380      	movs	r3, #128	; 0x80
 8000412:	005b      	lsls	r3, r3, #1
 8000414:	4013      	ands	r3, r2
 8000416:	d103      	bne.n	8000420 <RCC_GetClocksFreq+0x104>
 8000418:	687b      	ldr	r3, [r7, #4]
 800041a:	4a31      	ldr	r2, [pc, #196]	; (80004e0 <RCC_GetClocksFreq+0x1c4>)
 800041c:	60da      	str	r2, [r3, #12]
 800041e:	e010      	b.n	8000442 <RCC_GetClocksFreq+0x126>
 8000420:	4b2b      	ldr	r3, [pc, #172]	; (80004d0 <RCC_GetClocksFreq+0x1b4>)
 8000422:	685a      	ldr	r2, [r3, #4]
 8000424:	2380      	movs	r3, #128	; 0x80
 8000426:	01db      	lsls	r3, r3, #7
 8000428:	4013      	ands	r3, r2
 800042a:	d105      	bne.n	8000438 <RCC_GetClocksFreq+0x11c>
 800042c:	687b      	ldr	r3, [r7, #4]
 800042e:	689b      	ldr	r3, [r3, #8]
 8000430:	085a      	lsrs	r2, r3, #1
 8000432:	687b      	ldr	r3, [r7, #4]
 8000434:	60da      	str	r2, [r3, #12]
 8000436:	e004      	b.n	8000442 <RCC_GetClocksFreq+0x126>
 8000438:	687b      	ldr	r3, [r7, #4]
 800043a:	689b      	ldr	r3, [r3, #8]
 800043c:	089a      	lsrs	r2, r3, #2
 800043e:	687b      	ldr	r3, [r7, #4]
 8000440:	60da      	str	r2, [r3, #12]
 8000442:	4b23      	ldr	r3, [pc, #140]	; (80004d0 <RCC_GetClocksFreq+0x1b4>)
 8000444:	6b1a      	ldr	r2, [r3, #48]	; 0x30
 8000446:	2340      	movs	r3, #64	; 0x40
 8000448:	4013      	ands	r3, r2
 800044a:	d103      	bne.n	8000454 <RCC_GetClocksFreq+0x138>
 800044c:	687b      	ldr	r3, [r7, #4]
 800044e:	4a25      	ldr	r2, [pc, #148]	; (80004e4 <RCC_GetClocksFreq+0x1c8>)
 8000450:	611a      	str	r2, [r3, #16]
 8000452:	e003      	b.n	800045c <RCC_GetClocksFreq+0x140>
 8000454:	687b      	ldr	r3, [r7, #4]
 8000456:	2280      	movs	r2, #128	; 0x80
 8000458:	0212      	lsls	r2, r2, #8
 800045a:	611a      	str	r2, [r3, #16]
 800045c:	4b1c      	ldr	r3, [pc, #112]	; (80004d0 <RCC_GetClocksFreq+0x1b4>)
 800045e:	6b1a      	ldr	r2, [r3, #48]	; 0x30
 8000460:	2310      	movs	r3, #16
 8000462:	4013      	ands	r3, r2
 8000464:	d103      	bne.n	800046e <RCC_GetClocksFreq+0x152>
 8000466:	687b      	ldr	r3, [r7, #4]
 8000468:	4a1a      	ldr	r2, [pc, #104]	; (80004d4 <RCC_GetClocksFreq+0x1b8>)
 800046a:	615a      	str	r2, [r3, #20]
 800046c:	e003      	b.n	8000476 <RCC_GetClocksFreq+0x15a>
 800046e:	687b      	ldr	r3, [r7, #4]
 8000470:	681a      	ldr	r2, [r3, #0]
 8000472:	687b      	ldr	r3, [r7, #4]
 8000474:	615a      	str	r2, [r3, #20]
 8000476:	4b16      	ldr	r3, [pc, #88]	; (80004d0 <RCC_GetClocksFreq+0x1b4>)
 8000478:	6b1a      	ldr	r2, [r3, #48]	; 0x30
 800047a:	2303      	movs	r3, #3
 800047c:	4013      	ands	r3, r2
 800047e:	d104      	bne.n	800048a <RCC_GetClocksFreq+0x16e>
 8000480:	687b      	ldr	r3, [r7, #4]
 8000482:	689a      	ldr	r2, [r3, #8]
 8000484:	687b      	ldr	r3, [r7, #4]
 8000486:	619a      	str	r2, [r3, #24]
 8000488:	e01e      	b.n	80004c8 <RCC_GetClocksFreq+0x1ac>
 800048a:	4b11      	ldr	r3, [pc, #68]	; (80004d0 <RCC_GetClocksFreq+0x1b4>)
 800048c:	6b1a      	ldr	r2, [r3, #48]	; 0x30
 800048e:	2303      	movs	r3, #3
 8000490:	4013      	ands	r3, r2
 8000492:	2b01      	cmp	r3, #1
 8000494:	d104      	bne.n	80004a0 <RCC_GetClocksFreq+0x184>
 8000496:	687b      	ldr	r3, [r7, #4]
 8000498:	681a      	ldr	r2, [r3, #0]
 800049a:	687b      	ldr	r3, [r7, #4]
 800049c:	619a      	str	r2, [r3, #24]
 800049e:	e013      	b.n	80004c8 <RCC_GetClocksFreq+0x1ac>
 80004a0:	4b0b      	ldr	r3, [pc, #44]	; (80004d0 <RCC_GetClocksFreq+0x1b4>)
 80004a2:	6b1a      	ldr	r2, [r3, #48]	; 0x30
 80004a4:	2303      	movs	r3, #3
 80004a6:	4013      	ands	r3, r2
 80004a8:	2b02      	cmp	r3, #2
 80004aa:	d104      	bne.n	80004b6 <RCC_GetClocksFreq+0x19a>
 80004ac:	687b      	ldr	r3, [r7, #4]
 80004ae:	2280      	movs	r2, #128	; 0x80
 80004b0:	0212      	lsls	r2, r2, #8
 80004b2:	619a      	str	r2, [r3, #24]
 80004b4:	e008      	b.n	80004c8 <RCC_GetClocksFreq+0x1ac>
 80004b6:	4b06      	ldr	r3, [pc, #24]	; (80004d0 <RCC_GetClocksFreq+0x1b4>)
 80004b8:	6b1a      	ldr	r2, [r3, #48]	; 0x30
 80004ba:	2303      	movs	r3, #3
 80004bc:	4013      	ands	r3, r2
 80004be:	2b03      	cmp	r3, #3
 80004c0:	d102      	bne.n	80004c8 <RCC_GetClocksFreq+0x1ac>
 80004c2:	687b      	ldr	r3, [r7, #4]
 80004c4:	4a03      	ldr	r2, [pc, #12]	; (80004d4 <RCC_GetClocksFreq+0x1b8>)
 80004c6:	619a      	str	r2, [r3, #24]
 80004c8:	46bd      	mov	sp, r7
 80004ca:	b008      	add	sp, #32
 80004cc:	bd80      	pop	{r7, pc}
 80004ce:	46c0      	nop			; (mov r8, r8)
 80004d0:	40021000 	.word	0x40021000
 80004d4:	007a1200 	.word	0x007a1200
 80004d8:	003d0900 	.word	0x003d0900
 80004dc:	20000000 	.word	0x20000000
 80004e0:	00d59f80 	.word	0x00d59f80
 80004e4:	00008012 	.word	0x00008012

080004e8 <RCC_AHBPeriphClockCmd>:
 80004e8:	b580      	push	{r7, lr}
 80004ea:	b082      	sub	sp, #8
 80004ec:	af00      	add	r7, sp, #0
 80004ee:	6078      	str	r0, [r7, #4]
 80004f0:	1c0a      	adds	r2, r1, #0
 80004f2:	1cfb      	adds	r3, r7, #3
 80004f4:	701a      	strb	r2, [r3, #0]
 80004f6:	687a      	ldr	r2, [r7, #4]
 80004f8:	4b17      	ldr	r3, [pc, #92]	; (8000558 <RCC_AHBPeriphClockCmd+0x70>)
 80004fa:	4013      	ands	r3, r2
 80004fc:	d102      	bne.n	8000504 <RCC_AHBPeriphClockCmd+0x1c>
 80004fe:	687b      	ldr	r3, [r7, #4]
 8000500:	2b00      	cmp	r3, #0
 8000502:	d105      	bne.n	8000510 <RCC_AHBPeriphClockCmd+0x28>
 8000504:	4a15      	ldr	r2, [pc, #84]	; (800055c <RCC_AHBPeriphClockCmd+0x74>)
 8000506:	4b16      	ldr	r3, [pc, #88]	; (8000560 <RCC_AHBPeriphClockCmd+0x78>)
 8000508:	1c10      	adds	r0, r2, #0
 800050a:	1c19      	adds	r1, r3, #0
 800050c:	f002 f8f4 	bl	80026f8 <assert_failed>
 8000510:	1cfb      	adds	r3, r7, #3
 8000512:	781b      	ldrb	r3, [r3, #0]
 8000514:	2b00      	cmp	r3, #0
 8000516:	d009      	beq.n	800052c <RCC_AHBPeriphClockCmd+0x44>
 8000518:	1cfb      	adds	r3, r7, #3
 800051a:	781b      	ldrb	r3, [r3, #0]
 800051c:	2b01      	cmp	r3, #1
 800051e:	d005      	beq.n	800052c <RCC_AHBPeriphClockCmd+0x44>
 8000520:	4a0e      	ldr	r2, [pc, #56]	; (800055c <RCC_AHBPeriphClockCmd+0x74>)
 8000522:	4b10      	ldr	r3, [pc, #64]	; (8000564 <RCC_AHBPeriphClockCmd+0x7c>)
 8000524:	1c10      	adds	r0, r2, #0
 8000526:	1c19      	adds	r1, r3, #0
 8000528:	f002 f8e6 	bl	80026f8 <assert_failed>
 800052c:	1cfb      	adds	r3, r7, #3
 800052e:	781b      	ldrb	r3, [r3, #0]
 8000530:	2b00      	cmp	r3, #0
 8000532:	d006      	beq.n	8000542 <RCC_AHBPeriphClockCmd+0x5a>
 8000534:	4b0c      	ldr	r3, [pc, #48]	; (8000568 <RCC_AHBPeriphClockCmd+0x80>)
 8000536:	4a0c      	ldr	r2, [pc, #48]	; (8000568 <RCC_AHBPeriphClockCmd+0x80>)
 8000538:	6951      	ldr	r1, [r2, #20]
 800053a:	687a      	ldr	r2, [r7, #4]
 800053c:	430a      	orrs	r2, r1
 800053e:	615a      	str	r2, [r3, #20]
 8000540:	e006      	b.n	8000550 <RCC_AHBPeriphClockCmd+0x68>
 8000542:	4b09      	ldr	r3, [pc, #36]	; (8000568 <RCC_AHBPeriphClockCmd+0x80>)
 8000544:	4a08      	ldr	r2, [pc, #32]	; (8000568 <RCC_AHBPeriphClockCmd+0x80>)
 8000546:	6952      	ldr	r2, [r2, #20]
 8000548:	6879      	ldr	r1, [r7, #4]
 800054a:	43c9      	mvns	r1, r1
 800054c:	400a      	ands	r2, r1
 800054e:	615a      	str	r2, [r3, #20]
 8000550:	46bd      	mov	sp, r7
 8000552:	b002      	add	sp, #8
 8000554:	bd80      	pop	{r7, pc}
 8000556:	46c0      	nop			; (mov r8, r8)
 8000558:	fea1ffaa 	.word	0xfea1ffaa
 800055c:	0800391c 	.word	0x0800391c
 8000560:	0000048d 	.word	0x0000048d
 8000564:	0000048e 	.word	0x0000048e
 8000568:	40021000 	.word	0x40021000

0800056c <RCC_APB2PeriphClockCmd>:
 800056c:	b580      	push	{r7, lr}
 800056e:	b082      	sub	sp, #8
 8000570:	af00      	add	r7, sp, #0
 8000572:	6078      	str	r0, [r7, #4]
 8000574:	1c0a      	adds	r2, r1, #0
 8000576:	1cfb      	adds	r3, r7, #3
 8000578:	701a      	strb	r2, [r3, #0]
 800057a:	687a      	ldr	r2, [r7, #4]
 800057c:	4b17      	ldr	r3, [pc, #92]	; (80005dc <RCC_APB2PeriphClockCmd+0x70>)
 800057e:	4013      	ands	r3, r2
 8000580:	d102      	bne.n	8000588 <RCC_APB2PeriphClockCmd+0x1c>
 8000582:	687b      	ldr	r3, [r7, #4]
 8000584:	2b00      	cmp	r3, #0
 8000586:	d105      	bne.n	8000594 <RCC_APB2PeriphClockCmd+0x28>
 8000588:	4a15      	ldr	r2, [pc, #84]	; (80005e0 <RCC_APB2PeriphClockCmd+0x74>)
 800058a:	4b16      	ldr	r3, [pc, #88]	; (80005e4 <RCC_APB2PeriphClockCmd+0x78>)
 800058c:	1c10      	adds	r0, r2, #0
 800058e:	1c19      	adds	r1, r3, #0
 8000590:	f002 f8b2 	bl	80026f8 <assert_failed>
 8000594:	1cfb      	adds	r3, r7, #3
 8000596:	781b      	ldrb	r3, [r3, #0]
 8000598:	2b00      	cmp	r3, #0
 800059a:	d009      	beq.n	80005b0 <RCC_APB2PeriphClockCmd+0x44>
 800059c:	1cfb      	adds	r3, r7, #3
 800059e:	781b      	ldrb	r3, [r3, #0]
 80005a0:	2b01      	cmp	r3, #1
 80005a2:	d005      	beq.n	80005b0 <RCC_APB2PeriphClockCmd+0x44>
 80005a4:	4a0e      	ldr	r2, [pc, #56]	; (80005e0 <RCC_APB2PeriphClockCmd+0x74>)
 80005a6:	4b10      	ldr	r3, [pc, #64]	; (80005e8 <RCC_APB2PeriphClockCmd+0x7c>)
 80005a8:	1c10      	adds	r0, r2, #0
 80005aa:	1c19      	adds	r1, r3, #0
 80005ac:	f002 f8a4 	bl	80026f8 <assert_failed>
 80005b0:	1cfb      	adds	r3, r7, #3
 80005b2:	781b      	ldrb	r3, [r3, #0]
 80005b4:	2b00      	cmp	r3, #0
 80005b6:	d006      	beq.n	80005c6 <RCC_APB2PeriphClockCmd+0x5a>
 80005b8:	4b0c      	ldr	r3, [pc, #48]	; (80005ec <RCC_APB2PeriphClockCmd+0x80>)
 80005ba:	4a0c      	ldr	r2, [pc, #48]	; (80005ec <RCC_APB2PeriphClockCmd+0x80>)
 80005bc:	6991      	ldr	r1, [r2, #24]
 80005be:	687a      	ldr	r2, [r7, #4]
 80005c0:	430a      	orrs	r2, r1
 80005c2:	619a      	str	r2, [r3, #24]
 80005c4:	e006      	b.n	80005d4 <RCC_APB2PeriphClockCmd+0x68>
 80005c6:	4b09      	ldr	r3, [pc, #36]	; (80005ec <RCC_APB2PeriphClockCmd+0x80>)
 80005c8:	4a08      	ldr	r2, [pc, #32]	; (80005ec <RCC_APB2PeriphClockCmd+0x80>)
 80005ca:	6992      	ldr	r2, [r2, #24]
 80005cc:	6879      	ldr	r1, [r7, #4]
 80005ce:	43c9      	mvns	r1, r1
 80005d0:	400a      	ands	r2, r1
 80005d2:	619a      	str	r2, [r3, #24]
 80005d4:	46bd      	mov	sp, r7
 80005d6:	b002      	add	sp, #8
 80005d8:	bd80      	pop	{r7, pc}
 80005da:	46c0      	nop			; (mov r8, r8)
 80005dc:	ffb8a5fe 	.word	0xffb8a5fe
 80005e0:	0800391c 	.word	0x0800391c
 80005e4:	000004b1 	.word	0x000004b1
 80005e8:	000004b2 	.word	0x000004b2
 80005ec:	40021000 	.word	0x40021000

080005f0 <GPIO_Init>:
 80005f0:	b580      	push	{r7, lr}
 80005f2:	b086      	sub	sp, #24
 80005f4:	af00      	add	r7, sp, #0
 80005f6:	6078      	str	r0, [r7, #4]
 80005f8:	6039      	str	r1, [r7, #0]
 80005fa:	2300      	movs	r3, #0
 80005fc:	617b      	str	r3, [r7, #20]
 80005fe:	2300      	movs	r3, #0
 8000600:	613b      	str	r3, [r7, #16]
 8000602:	2300      	movs	r3, #0
 8000604:	60fb      	str	r3, [r7, #12]
 8000606:	687a      	ldr	r2, [r7, #4]
 8000608:	2390      	movs	r3, #144	; 0x90
 800060a:	05db      	lsls	r3, r3, #23
 800060c:	429a      	cmp	r2, r3
 800060e:	d014      	beq.n	800063a <GPIO_Init+0x4a>
 8000610:	687a      	ldr	r2, [r7, #4]
 8000612:	4b79      	ldr	r3, [pc, #484]	; (80007f8 <GPIO_Init+0x208>)
 8000614:	429a      	cmp	r2, r3
 8000616:	d010      	beq.n	800063a <GPIO_Init+0x4a>
 8000618:	687a      	ldr	r2, [r7, #4]
 800061a:	4b78      	ldr	r3, [pc, #480]	; (80007fc <GPIO_Init+0x20c>)
 800061c:	429a      	cmp	r2, r3
 800061e:	d00c      	beq.n	800063a <GPIO_Init+0x4a>
 8000620:	687a      	ldr	r2, [r7, #4]
 8000622:	4b77      	ldr	r3, [pc, #476]	; (8000800 <GPIO_Init+0x210>)
 8000624:	429a      	cmp	r2, r3
 8000626:	d008      	beq.n	800063a <GPIO_Init+0x4a>
 8000628:	687a      	ldr	r2, [r7, #4]
 800062a:	4b76      	ldr	r3, [pc, #472]	; (8000804 <GPIO_Init+0x214>)
 800062c:	429a      	cmp	r2, r3
 800062e:	d004      	beq.n	800063a <GPIO_Init+0x4a>
 8000630:	4b75      	ldr	r3, [pc, #468]	; (8000808 <GPIO_Init+0x218>)
 8000632:	1c18      	adds	r0, r3, #0
 8000634:	21a7      	movs	r1, #167	; 0xa7
 8000636:	f002 f85f 	bl	80026f8 <assert_failed>
 800063a:	683b      	ldr	r3, [r7, #0]
 800063c:	681b      	ldr	r3, [r3, #0]
 800063e:	2b00      	cmp	r3, #0
 8000640:	d104      	bne.n	800064c <GPIO_Init+0x5c>
 8000642:	4b71      	ldr	r3, [pc, #452]	; (8000808 <GPIO_Init+0x218>)
 8000644:	1c18      	adds	r0, r3, #0
 8000646:	21a8      	movs	r1, #168	; 0xa8
 8000648:	f002 f856 	bl	80026f8 <assert_failed>
 800064c:	683b      	ldr	r3, [r7, #0]
 800064e:	791b      	ldrb	r3, [r3, #4]
 8000650:	2b00      	cmp	r3, #0
 8000652:	d010      	beq.n	8000676 <GPIO_Init+0x86>
 8000654:	683b      	ldr	r3, [r7, #0]
 8000656:	791b      	ldrb	r3, [r3, #4]
 8000658:	2b01      	cmp	r3, #1
 800065a:	d00c      	beq.n	8000676 <GPIO_Init+0x86>
 800065c:	683b      	ldr	r3, [r7, #0]
 800065e:	791b      	ldrb	r3, [r3, #4]
 8000660:	2b02      	cmp	r3, #2
 8000662:	d008      	beq.n	8000676 <GPIO_Init+0x86>
 8000664:	683b      	ldr	r3, [r7, #0]
 8000666:	791b      	ldrb	r3, [r3, #4]
 8000668:	2b03      	cmp	r3, #3
 800066a:	d004      	beq.n	8000676 <GPIO_Init+0x86>
 800066c:	4b66      	ldr	r3, [pc, #408]	; (8000808 <GPIO_Init+0x218>)
 800066e:	1c18      	adds	r0, r3, #0
 8000670:	21a9      	movs	r1, #169	; 0xa9
 8000672:	f002 f841 	bl	80026f8 <assert_failed>
 8000676:	683b      	ldr	r3, [r7, #0]
 8000678:	79db      	ldrb	r3, [r3, #7]
 800067a:	2b00      	cmp	r3, #0
 800067c:	d00c      	beq.n	8000698 <GPIO_Init+0xa8>
 800067e:	683b      	ldr	r3, [r7, #0]
 8000680:	79db      	ldrb	r3, [r3, #7]
 8000682:	2b01      	cmp	r3, #1
 8000684:	d008      	beq.n	8000698 <GPIO_Init+0xa8>
 8000686:	683b      	ldr	r3, [r7, #0]
 8000688:	79db      	ldrb	r3, [r3, #7]
 800068a:	2b02      	cmp	r3, #2
 800068c:	d004      	beq.n	8000698 <GPIO_Init+0xa8>
 800068e:	4b5e      	ldr	r3, [pc, #376]	; (8000808 <GPIO_Init+0x218>)
 8000690:	1c18      	adds	r0, r3, #0
 8000692:	21aa      	movs	r1, #170	; 0xaa
 8000694:	f002 f830 	bl	80026f8 <assert_failed>
 8000698:	2300      	movs	r3, #0
 800069a:	617b      	str	r3, [r7, #20]
 800069c:	e0a4      	b.n	80007e8 <GPIO_Init+0x1f8>
 800069e:	697b      	ldr	r3, [r7, #20]
 80006a0:	2201      	movs	r2, #1
 80006a2:	1c10      	adds	r0, r2, #0
 80006a4:	4098      	lsls	r0, r3
 80006a6:	1c03      	adds	r3, r0, #0
 80006a8:	613b      	str	r3, [r7, #16]
 80006aa:	683b      	ldr	r3, [r7, #0]
 80006ac:	681b      	ldr	r3, [r3, #0]
 80006ae:	693a      	ldr	r2, [r7, #16]
 80006b0:	4013      	ands	r3, r2
 80006b2:	60fb      	str	r3, [r7, #12]
 80006b4:	68fa      	ldr	r2, [r7, #12]
 80006b6:	693b      	ldr	r3, [r7, #16]
 80006b8:	429a      	cmp	r2, r3
 80006ba:	d000      	beq.n	80006be <GPIO_Init+0xce>
 80006bc:	e091      	b.n	80007e2 <GPIO_Init+0x1f2>
 80006be:	683b      	ldr	r3, [r7, #0]
 80006c0:	791b      	ldrb	r3, [r3, #4]
 80006c2:	2b01      	cmp	r3, #1
 80006c4:	d003      	beq.n	80006ce <GPIO_Init+0xde>
 80006c6:	683b      	ldr	r3, [r7, #0]
 80006c8:	791b      	ldrb	r3, [r3, #4]
 80006ca:	2b02      	cmp	r3, #2
 80006cc:	d156      	bne.n	800077c <GPIO_Init+0x18c>
 80006ce:	683b      	ldr	r3, [r7, #0]
 80006d0:	795b      	ldrb	r3, [r3, #5]
 80006d2:	2b01      	cmp	r3, #1
 80006d4:	d00c      	beq.n	80006f0 <GPIO_Init+0x100>
 80006d6:	683b      	ldr	r3, [r7, #0]
 80006d8:	795b      	ldrb	r3, [r3, #5]
 80006da:	2b02      	cmp	r3, #2
 80006dc:	d008      	beq.n	80006f0 <GPIO_Init+0x100>
 80006de:	683b      	ldr	r3, [r7, #0]
 80006e0:	795b      	ldrb	r3, [r3, #5]
 80006e2:	2b03      	cmp	r3, #3
 80006e4:	d004      	beq.n	80006f0 <GPIO_Init+0x100>
 80006e6:	4b48      	ldr	r3, [pc, #288]	; (8000808 <GPIO_Init+0x218>)
 80006e8:	1c18      	adds	r0, r3, #0
 80006ea:	21ba      	movs	r1, #186	; 0xba
 80006ec:	f002 f804 	bl	80026f8 <assert_failed>
 80006f0:	687b      	ldr	r3, [r7, #4]
 80006f2:	689b      	ldr	r3, [r3, #8]
 80006f4:	697a      	ldr	r2, [r7, #20]
 80006f6:	0052      	lsls	r2, r2, #1
 80006f8:	2103      	movs	r1, #3
 80006fa:	1c08      	adds	r0, r1, #0
 80006fc:	4090      	lsls	r0, r2
 80006fe:	1c02      	adds	r2, r0, #0
 8000700:	43d2      	mvns	r2, r2
 8000702:	401a      	ands	r2, r3
 8000704:	687b      	ldr	r3, [r7, #4]
 8000706:	609a      	str	r2, [r3, #8]
 8000708:	687b      	ldr	r3, [r7, #4]
 800070a:	689a      	ldr	r2, [r3, #8]
 800070c:	683b      	ldr	r3, [r7, #0]
 800070e:	795b      	ldrb	r3, [r3, #5]
 8000710:	1c19      	adds	r1, r3, #0
 8000712:	697b      	ldr	r3, [r7, #20]
 8000714:	005b      	lsls	r3, r3, #1
 8000716:	1c08      	adds	r0, r1, #0
 8000718:	4098      	lsls	r0, r3
 800071a:	1c03      	adds	r3, r0, #0
 800071c:	431a      	orrs	r2, r3
 800071e:	687b      	ldr	r3, [r7, #4]
 8000720:	609a      	str	r2, [r3, #8]
 8000722:	683b      	ldr	r3, [r7, #0]
 8000724:	799b      	ldrb	r3, [r3, #6]
 8000726:	2b00      	cmp	r3, #0
 8000728:	d008      	beq.n	800073c <GPIO_Init+0x14c>
 800072a:	683b      	ldr	r3, [r7, #0]
 800072c:	799b      	ldrb	r3, [r3, #6]
 800072e:	2b01      	cmp	r3, #1
 8000730:	d004      	beq.n	800073c <GPIO_Init+0x14c>
 8000732:	4b35      	ldr	r3, [pc, #212]	; (8000808 <GPIO_Init+0x218>)
 8000734:	1c18      	adds	r0, r3, #0
 8000736:	21c1      	movs	r1, #193	; 0xc1
 8000738:	f001 ffde 	bl	80026f8 <assert_failed>
 800073c:	687b      	ldr	r3, [r7, #4]
 800073e:	889b      	ldrh	r3, [r3, #4]
 8000740:	b29b      	uxth	r3, r3
 8000742:	697a      	ldr	r2, [r7, #20]
 8000744:	b292      	uxth	r2, r2
 8000746:	2101      	movs	r1, #1
 8000748:	1c08      	adds	r0, r1, #0
 800074a:	4090      	lsls	r0, r2
 800074c:	1c02      	adds	r2, r0, #0
 800074e:	b292      	uxth	r2, r2
 8000750:	43d2      	mvns	r2, r2
 8000752:	b292      	uxth	r2, r2
 8000754:	4013      	ands	r3, r2
 8000756:	b29a      	uxth	r2, r3
 8000758:	687b      	ldr	r3, [r7, #4]
 800075a:	809a      	strh	r2, [r3, #4]
 800075c:	687b      	ldr	r3, [r7, #4]
 800075e:	889b      	ldrh	r3, [r3, #4]
 8000760:	b29a      	uxth	r2, r3
 8000762:	683b      	ldr	r3, [r7, #0]
 8000764:	799b      	ldrb	r3, [r3, #6]
 8000766:	1c19      	adds	r1, r3, #0
 8000768:	697b      	ldr	r3, [r7, #20]
 800076a:	b29b      	uxth	r3, r3
 800076c:	1c08      	adds	r0, r1, #0
 800076e:	4098      	lsls	r0, r3
 8000770:	1c03      	adds	r3, r0, #0
 8000772:	b29b      	uxth	r3, r3
 8000774:	4313      	orrs	r3, r2
 8000776:	b29a      	uxth	r2, r3
 8000778:	687b      	ldr	r3, [r7, #4]
 800077a:	809a      	strh	r2, [r3, #4]
 800077c:	687b      	ldr	r3, [r7, #4]
 800077e:	681b      	ldr	r3, [r3, #0]
 8000780:	697a      	ldr	r2, [r7, #20]
 8000782:	0052      	lsls	r2, r2, #1
 8000784:	2103      	movs	r1, #3
 8000786:	1c08      	adds	r0, r1, #0
 8000788:	4090      	lsls	r0, r2
 800078a:	1c02      	adds	r2, r0, #0
 800078c:	43d2      	mvns	r2, r2
 800078e:	401a      	ands	r2, r3
 8000790:	687b      	ldr	r3, [r7, #4]
 8000792:	601a      	str	r2, [r3, #0]
 8000794:	687b      	ldr	r3, [r7, #4]
 8000796:	681a      	ldr	r2, [r3, #0]
 8000798:	683b      	ldr	r3, [r7, #0]
 800079a:	791b      	ldrb	r3, [r3, #4]
 800079c:	1c19      	adds	r1, r3, #0
 800079e:	697b      	ldr	r3, [r7, #20]
 80007a0:	005b      	lsls	r3, r3, #1
 80007a2:	1c08      	adds	r0, r1, #0
 80007a4:	4098      	lsls	r0, r3
 80007a6:	1c03      	adds	r3, r0, #0
 80007a8:	431a      	orrs	r2, r3
 80007aa:	687b      	ldr	r3, [r7, #4]
 80007ac:	601a      	str	r2, [r3, #0]
 80007ae:	687b      	ldr	r3, [r7, #4]
 80007b0:	68db      	ldr	r3, [r3, #12]
 80007b2:	697a      	ldr	r2, [r7, #20]
 80007b4:	b292      	uxth	r2, r2
 80007b6:	0052      	lsls	r2, r2, #1
 80007b8:	2103      	movs	r1, #3
 80007ba:	1c08      	adds	r0, r1, #0
 80007bc:	4090      	lsls	r0, r2
 80007be:	1c02      	adds	r2, r0, #0
 80007c0:	43d2      	mvns	r2, r2
 80007c2:	401a      	ands	r2, r3
 80007c4:	687b      	ldr	r3, [r7, #4]
 80007c6:	60da      	str	r2, [r3, #12]
 80007c8:	687b      	ldr	r3, [r7, #4]
 80007ca:	68da      	ldr	r2, [r3, #12]
 80007cc:	683b      	ldr	r3, [r7, #0]
 80007ce:	79db      	ldrb	r3, [r3, #7]
 80007d0:	1c19      	adds	r1, r3, #0
 80007d2:	697b      	ldr	r3, [r7, #20]
 80007d4:	005b      	lsls	r3, r3, #1
 80007d6:	1c08      	adds	r0, r1, #0
 80007d8:	4098      	lsls	r0, r3
 80007da:	1c03      	adds	r3, r0, #0
 80007dc:	431a      	orrs	r2, r3
 80007de:	687b      	ldr	r3, [r7, #4]
 80007e0:	60da      	str	r2, [r3, #12]
 80007e2:	697b      	ldr	r3, [r7, #20]
 80007e4:	3301      	adds	r3, #1
 80007e6:	617b      	str	r3, [r7, #20]
 80007e8:	697b      	ldr	r3, [r7, #20]
 80007ea:	2b0f      	cmp	r3, #15
 80007ec:	d800      	bhi.n	80007f0 <GPIO_Init+0x200>
 80007ee:	e756      	b.n	800069e <GPIO_Init+0xae>
 80007f0:	46bd      	mov	sp, r7
 80007f2:	b006      	add	sp, #24
 80007f4:	bd80      	pop	{r7, pc}
 80007f6:	46c0      	nop			; (mov r8, r8)
 80007f8:	48000400 	.word	0x48000400
 80007fc:	48000800 	.word	0x48000800
 8000800:	48000c00 	.word	0x48000c00
 8000804:	48001400 	.word	0x48001400
 8000808:	0800395c 	.word	0x0800395c

0800080c <GPIO_PinAFConfig>:
 800080c:	b590      	push	{r4, r7, lr}
 800080e:	b085      	sub	sp, #20
 8000810:	af00      	add	r7, sp, #0
 8000812:	6078      	str	r0, [r7, #4]
 8000814:	1cbb      	adds	r3, r7, #2
 8000816:	8019      	strh	r1, [r3, #0]
 8000818:	1c7b      	adds	r3, r7, #1
 800081a:	701a      	strb	r2, [r3, #0]
 800081c:	2300      	movs	r3, #0
 800081e:	60fb      	str	r3, [r7, #12]
 8000820:	2300      	movs	r3, #0
 8000822:	60bb      	str	r3, [r7, #8]
 8000824:	687a      	ldr	r2, [r7, #4]
 8000826:	2390      	movs	r3, #144	; 0x90
 8000828:	05db      	lsls	r3, r3, #23
 800082a:	429a      	cmp	r2, r3
 800082c:	d00a      	beq.n	8000844 <GPIO_PinAFConfig+0x38>
 800082e:	687a      	ldr	r2, [r7, #4]
 8000830:	4b5c      	ldr	r3, [pc, #368]	; (80009a4 <GPIO_PinAFConfig+0x198>)
 8000832:	429a      	cmp	r2, r3
 8000834:	d006      	beq.n	8000844 <GPIO_PinAFConfig+0x38>
 8000836:	4a5c      	ldr	r2, [pc, #368]	; (80009a8 <GPIO_PinAFConfig+0x19c>)
 8000838:	23ef      	movs	r3, #239	; 0xef
 800083a:	005b      	lsls	r3, r3, #1
 800083c:	1c10      	adds	r0, r2, #0
 800083e:	1c19      	adds	r1, r3, #0
 8000840:	f001 ff5a 	bl	80026f8 <assert_failed>
 8000844:	1cbb      	adds	r3, r7, #2
 8000846:	881b      	ldrh	r3, [r3, #0]
 8000848:	2b00      	cmp	r3, #0
 800084a:	d042      	beq.n	80008d2 <GPIO_PinAFConfig+0xc6>
 800084c:	1cbb      	adds	r3, r7, #2
 800084e:	881b      	ldrh	r3, [r3, #0]
 8000850:	2b01      	cmp	r3, #1
 8000852:	d03e      	beq.n	80008d2 <GPIO_PinAFConfig+0xc6>
 8000854:	1cbb      	adds	r3, r7, #2
 8000856:	881b      	ldrh	r3, [r3, #0]
 8000858:	2b02      	cmp	r3, #2
 800085a:	d03a      	beq.n	80008d2 <GPIO_PinAFConfig+0xc6>
 800085c:	1cbb      	adds	r3, r7, #2
 800085e:	881b      	ldrh	r3, [r3, #0]
 8000860:	2b03      	cmp	r3, #3
 8000862:	d036      	beq.n	80008d2 <GPIO_PinAFConfig+0xc6>
 8000864:	1cbb      	adds	r3, r7, #2
 8000866:	881b      	ldrh	r3, [r3, #0]
 8000868:	2b04      	cmp	r3, #4
 800086a:	d032      	beq.n	80008d2 <GPIO_PinAFConfig+0xc6>
 800086c:	1cbb      	adds	r3, r7, #2
 800086e:	881b      	ldrh	r3, [r3, #0]
 8000870:	2b05      	cmp	r3, #5
 8000872:	d02e      	beq.n	80008d2 <GPIO_PinAFConfig+0xc6>
 8000874:	1cbb      	adds	r3, r7, #2
 8000876:	881b      	ldrh	r3, [r3, #0]
 8000878:	2b06      	cmp	r3, #6
 800087a:	d02a      	beq.n	80008d2 <GPIO_PinAFConfig+0xc6>
 800087c:	1cbb      	adds	r3, r7, #2
 800087e:	881b      	ldrh	r3, [r3, #0]
 8000880:	2b07      	cmp	r3, #7
 8000882:	d026      	beq.n	80008d2 <GPIO_PinAFConfig+0xc6>
 8000884:	1cbb      	adds	r3, r7, #2
 8000886:	881b      	ldrh	r3, [r3, #0]
 8000888:	2b08      	cmp	r3, #8
 800088a:	d022      	beq.n	80008d2 <GPIO_PinAFConfig+0xc6>
 800088c:	1cbb      	adds	r3, r7, #2
 800088e:	881b      	ldrh	r3, [r3, #0]
 8000890:	2b09      	cmp	r3, #9
 8000892:	d01e      	beq.n	80008d2 <GPIO_PinAFConfig+0xc6>
 8000894:	1cbb      	adds	r3, r7, #2
 8000896:	881b      	ldrh	r3, [r3, #0]
 8000898:	2b0a      	cmp	r3, #10
 800089a:	d01a      	beq.n	80008d2 <GPIO_PinAFConfig+0xc6>
 800089c:	1cbb      	adds	r3, r7, #2
 800089e:	881b      	ldrh	r3, [r3, #0]
 80008a0:	2b0b      	cmp	r3, #11
 80008a2:	d016      	beq.n	80008d2 <GPIO_PinAFConfig+0xc6>
 80008a4:	1cbb      	adds	r3, r7, #2
 80008a6:	881b      	ldrh	r3, [r3, #0]
 80008a8:	2b0c      	cmp	r3, #12
 80008aa:	d012      	beq.n	80008d2 <GPIO_PinAFConfig+0xc6>
 80008ac:	1cbb      	adds	r3, r7, #2
 80008ae:	881b      	ldrh	r3, [r3, #0]
 80008b0:	2b0d      	cmp	r3, #13
 80008b2:	d00e      	beq.n	80008d2 <GPIO_PinAFConfig+0xc6>
 80008b4:	1cbb      	adds	r3, r7, #2
 80008b6:	881b      	ldrh	r3, [r3, #0]
 80008b8:	2b0e      	cmp	r3, #14
 80008ba:	d00a      	beq.n	80008d2 <GPIO_PinAFConfig+0xc6>
 80008bc:	1cbb      	adds	r3, r7, #2
 80008be:	881b      	ldrh	r3, [r3, #0]
 80008c0:	2b0f      	cmp	r3, #15
 80008c2:	d006      	beq.n	80008d2 <GPIO_PinAFConfig+0xc6>
 80008c4:	4a38      	ldr	r2, [pc, #224]	; (80009a8 <GPIO_PinAFConfig+0x19c>)
 80008c6:	23e0      	movs	r3, #224	; 0xe0
 80008c8:	33ff      	adds	r3, #255	; 0xff
 80008ca:	1c10      	adds	r0, r2, #0
 80008cc:	1c19      	adds	r1, r3, #0
 80008ce:	f001 ff13 	bl	80026f8 <assert_failed>
 80008d2:	1c7b      	adds	r3, r7, #1
 80008d4:	781b      	ldrb	r3, [r3, #0]
 80008d6:	2b00      	cmp	r3, #0
 80008d8:	d022      	beq.n	8000920 <GPIO_PinAFConfig+0x114>
 80008da:	1c7b      	adds	r3, r7, #1
 80008dc:	781b      	ldrb	r3, [r3, #0]
 80008de:	2b01      	cmp	r3, #1
 80008e0:	d01e      	beq.n	8000920 <GPIO_PinAFConfig+0x114>
 80008e2:	1c7b      	adds	r3, r7, #1
 80008e4:	781b      	ldrb	r3, [r3, #0]
 80008e6:	2b02      	cmp	r3, #2
 80008e8:	d01a      	beq.n	8000920 <GPIO_PinAFConfig+0x114>
 80008ea:	1c7b      	adds	r3, r7, #1
 80008ec:	781b      	ldrb	r3, [r3, #0]
 80008ee:	2b03      	cmp	r3, #3
 80008f0:	d016      	beq.n	8000920 <GPIO_PinAFConfig+0x114>
 80008f2:	1c7b      	adds	r3, r7, #1
 80008f4:	781b      	ldrb	r3, [r3, #0]
 80008f6:	2b04      	cmp	r3, #4
 80008f8:	d012      	beq.n	8000920 <GPIO_PinAFConfig+0x114>
 80008fa:	1c7b      	adds	r3, r7, #1
 80008fc:	781b      	ldrb	r3, [r3, #0]
 80008fe:	2b05      	cmp	r3, #5
 8000900:	d00e      	beq.n	8000920 <GPIO_PinAFConfig+0x114>
 8000902:	1c7b      	adds	r3, r7, #1
 8000904:	781b      	ldrb	r3, [r3, #0]
 8000906:	2b06      	cmp	r3, #6
 8000908:	d00a      	beq.n	8000920 <GPIO_PinAFConfig+0x114>
 800090a:	1c7b      	adds	r3, r7, #1
 800090c:	781b      	ldrb	r3, [r3, #0]
 800090e:	2b07      	cmp	r3, #7
 8000910:	d006      	beq.n	8000920 <GPIO_PinAFConfig+0x114>
 8000912:	4a25      	ldr	r2, [pc, #148]	; (80009a8 <GPIO_PinAFConfig+0x19c>)
 8000914:	23f0      	movs	r3, #240	; 0xf0
 8000916:	005b      	lsls	r3, r3, #1
 8000918:	1c10      	adds	r0, r2, #0
 800091a:	1c19      	adds	r1, r3, #0
 800091c:	f001 feec 	bl	80026f8 <assert_failed>
 8000920:	1c7b      	adds	r3, r7, #1
 8000922:	781a      	ldrb	r2, [r3, #0]
 8000924:	1cbb      	adds	r3, r7, #2
 8000926:	8819      	ldrh	r1, [r3, #0]
 8000928:	2307      	movs	r3, #7
 800092a:	400b      	ands	r3, r1
 800092c:	009b      	lsls	r3, r3, #2
 800092e:	1c11      	adds	r1, r2, #0
 8000930:	4099      	lsls	r1, r3
 8000932:	1c0b      	adds	r3, r1, #0
 8000934:	60fb      	str	r3, [r7, #12]
 8000936:	1cbb      	adds	r3, r7, #2
 8000938:	881b      	ldrh	r3, [r3, #0]
 800093a:	08db      	lsrs	r3, r3, #3
 800093c:	b29b      	uxth	r3, r3
 800093e:	1c1a      	adds	r2, r3, #0
 8000940:	1cbb      	adds	r3, r7, #2
 8000942:	881b      	ldrh	r3, [r3, #0]
 8000944:	08db      	lsrs	r3, r3, #3
 8000946:	b29b      	uxth	r3, r3
 8000948:	1c19      	adds	r1, r3, #0
 800094a:	687b      	ldr	r3, [r7, #4]
 800094c:	3108      	adds	r1, #8
 800094e:	0089      	lsls	r1, r1, #2
 8000950:	58cb      	ldr	r3, [r1, r3]
 8000952:	1cb9      	adds	r1, r7, #2
 8000954:	8808      	ldrh	r0, [r1, #0]
 8000956:	2107      	movs	r1, #7
 8000958:	4001      	ands	r1, r0
 800095a:	0089      	lsls	r1, r1, #2
 800095c:	200f      	movs	r0, #15
 800095e:	1c04      	adds	r4, r0, #0
 8000960:	408c      	lsls	r4, r1
 8000962:	1c21      	adds	r1, r4, #0
 8000964:	43c9      	mvns	r1, r1
 8000966:	4019      	ands	r1, r3
 8000968:	687b      	ldr	r3, [r7, #4]
 800096a:	3208      	adds	r2, #8
 800096c:	0092      	lsls	r2, r2, #2
 800096e:	50d1      	str	r1, [r2, r3]
 8000970:	1cbb      	adds	r3, r7, #2
 8000972:	881b      	ldrh	r3, [r3, #0]
 8000974:	08db      	lsrs	r3, r3, #3
 8000976:	b29b      	uxth	r3, r3
 8000978:	1c1a      	adds	r2, r3, #0
 800097a:	687b      	ldr	r3, [r7, #4]
 800097c:	3208      	adds	r2, #8
 800097e:	0092      	lsls	r2, r2, #2
 8000980:	58d2      	ldr	r2, [r2, r3]
 8000982:	68fb      	ldr	r3, [r7, #12]
 8000984:	4313      	orrs	r3, r2
 8000986:	60bb      	str	r3, [r7, #8]
 8000988:	1cbb      	adds	r3, r7, #2
 800098a:	881b      	ldrh	r3, [r3, #0]
 800098c:	08db      	lsrs	r3, r3, #3
 800098e:	b29b      	uxth	r3, r3
 8000990:	1c1a      	adds	r2, r3, #0
 8000992:	687b      	ldr	r3, [r7, #4]
 8000994:	3208      	adds	r2, #8
 8000996:	0092      	lsls	r2, r2, #2
 8000998:	68b9      	ldr	r1, [r7, #8]
 800099a:	50d1      	str	r1, [r2, r3]
 800099c:	46bd      	mov	sp, r7
 800099e:	b005      	add	sp, #20
 80009a0:	bd90      	pop	{r4, r7, pc}
 80009a2:	46c0      	nop			; (mov r8, r8)
 80009a4:	48000400 	.word	0x48000400
 80009a8:	0800395c 	.word	0x0800395c

080009ac <NVIC_Init>:
 80009ac:	b580      	push	{r7, lr}
 80009ae:	b084      	sub	sp, #16
 80009b0:	af00      	add	r7, sp, #0
 80009b2:	6078      	str	r0, [r7, #4]
 80009b4:	2300      	movs	r3, #0
 80009b6:	60fb      	str	r3, [r7, #12]
 80009b8:	687b      	ldr	r3, [r7, #4]
 80009ba:	789b      	ldrb	r3, [r3, #2]
 80009bc:	2b00      	cmp	r3, #0
 80009be:	d008      	beq.n	80009d2 <NVIC_Init+0x26>
 80009c0:	687b      	ldr	r3, [r7, #4]
 80009c2:	789b      	ldrb	r3, [r3, #2]
 80009c4:	2b01      	cmp	r3, #1
 80009c6:	d004      	beq.n	80009d2 <NVIC_Init+0x26>
 80009c8:	4b2d      	ldr	r3, [pc, #180]	; (8000a80 <NVIC_Init+0xd4>)
 80009ca:	1c18      	adds	r0, r3, #0
 80009cc:	2154      	movs	r1, #84	; 0x54
 80009ce:	f001 fe93 	bl	80026f8 <assert_failed>
 80009d2:	687b      	ldr	r3, [r7, #4]
 80009d4:	785b      	ldrb	r3, [r3, #1]
 80009d6:	2b03      	cmp	r3, #3
 80009d8:	d904      	bls.n	80009e4 <NVIC_Init+0x38>
 80009da:	4b29      	ldr	r3, [pc, #164]	; (8000a80 <NVIC_Init+0xd4>)
 80009dc:	1c18      	adds	r0, r3, #0
 80009de:	2155      	movs	r1, #85	; 0x55
 80009e0:	f001 fe8a 	bl	80026f8 <assert_failed>
 80009e4:	687b      	ldr	r3, [r7, #4]
 80009e6:	789b      	ldrb	r3, [r3, #2]
 80009e8:	2b00      	cmp	r3, #0
 80009ea:	d03c      	beq.n	8000a66 <NVIC_Init+0xba>
 80009ec:	4b25      	ldr	r3, [pc, #148]	; (8000a84 <NVIC_Init+0xd8>)
 80009ee:	687a      	ldr	r2, [r7, #4]
 80009f0:	7812      	ldrb	r2, [r2, #0]
 80009f2:	0892      	lsrs	r2, r2, #2
 80009f4:	b2d2      	uxtb	r2, r2
 80009f6:	32c0      	adds	r2, #192	; 0xc0
 80009f8:	0092      	lsls	r2, r2, #2
 80009fa:	58d3      	ldr	r3, [r2, r3]
 80009fc:	60fb      	str	r3, [r7, #12]
 80009fe:	687b      	ldr	r3, [r7, #4]
 8000a00:	781b      	ldrb	r3, [r3, #0]
 8000a02:	1c1a      	adds	r2, r3, #0
 8000a04:	2303      	movs	r3, #3
 8000a06:	4013      	ands	r3, r2
 8000a08:	00db      	lsls	r3, r3, #3
 8000a0a:	22ff      	movs	r2, #255	; 0xff
 8000a0c:	1c10      	adds	r0, r2, #0
 8000a0e:	4098      	lsls	r0, r3
 8000a10:	1c03      	adds	r3, r0, #0
 8000a12:	43da      	mvns	r2, r3
 8000a14:	68fb      	ldr	r3, [r7, #12]
 8000a16:	4013      	ands	r3, r2
 8000a18:	60fb      	str	r3, [r7, #12]
 8000a1a:	687b      	ldr	r3, [r7, #4]
 8000a1c:	785b      	ldrb	r3, [r3, #1]
 8000a1e:	019a      	lsls	r2, r3, #6
 8000a20:	23ff      	movs	r3, #255	; 0xff
 8000a22:	401a      	ands	r2, r3
 8000a24:	687b      	ldr	r3, [r7, #4]
 8000a26:	781b      	ldrb	r3, [r3, #0]
 8000a28:	1c19      	adds	r1, r3, #0
 8000a2a:	2303      	movs	r3, #3
 8000a2c:	400b      	ands	r3, r1
 8000a2e:	00db      	lsls	r3, r3, #3
 8000a30:	1c11      	adds	r1, r2, #0
 8000a32:	4099      	lsls	r1, r3
 8000a34:	1c0b      	adds	r3, r1, #0
 8000a36:	68fa      	ldr	r2, [r7, #12]
 8000a38:	4313      	orrs	r3, r2
 8000a3a:	60fb      	str	r3, [r7, #12]
 8000a3c:	4b11      	ldr	r3, [pc, #68]	; (8000a84 <NVIC_Init+0xd8>)
 8000a3e:	687a      	ldr	r2, [r7, #4]
 8000a40:	7812      	ldrb	r2, [r2, #0]
 8000a42:	0892      	lsrs	r2, r2, #2
 8000a44:	b2d2      	uxtb	r2, r2
 8000a46:	32c0      	adds	r2, #192	; 0xc0
 8000a48:	0092      	lsls	r2, r2, #2
 8000a4a:	68f9      	ldr	r1, [r7, #12]
 8000a4c:	50d1      	str	r1, [r2, r3]
 8000a4e:	4b0d      	ldr	r3, [pc, #52]	; (8000a84 <NVIC_Init+0xd8>)
 8000a50:	687a      	ldr	r2, [r7, #4]
 8000a52:	7812      	ldrb	r2, [r2, #0]
 8000a54:	1c11      	adds	r1, r2, #0
 8000a56:	221f      	movs	r2, #31
 8000a58:	400a      	ands	r2, r1
 8000a5a:	2101      	movs	r1, #1
 8000a5c:	1c08      	adds	r0, r1, #0
 8000a5e:	4090      	lsls	r0, r2
 8000a60:	1c02      	adds	r2, r0, #0
 8000a62:	601a      	str	r2, [r3, #0]
 8000a64:	e009      	b.n	8000a7a <NVIC_Init+0xce>
 8000a66:	4a07      	ldr	r2, [pc, #28]	; (8000a84 <NVIC_Init+0xd8>)
 8000a68:	687b      	ldr	r3, [r7, #4]
 8000a6a:	781b      	ldrb	r3, [r3, #0]
 8000a6c:	1c19      	adds	r1, r3, #0
 8000a6e:	231f      	movs	r3, #31
 8000a70:	400b      	ands	r3, r1
 8000a72:	2101      	movs	r1, #1
 8000a74:	4099      	lsls	r1, r3
 8000a76:	2380      	movs	r3, #128	; 0x80
 8000a78:	50d1      	str	r1, [r2, r3]
 8000a7a:	46bd      	mov	sp, r7
 8000a7c:	b004      	add	sp, #16
 8000a7e:	bd80      	pop	{r7, pc}
 8000a80:	0800399c 	.word	0x0800399c
 8000a84:	e000e100 	.word	0xe000e100

08000a88 <FLASH_Unlock>:
 8000a88:	b580      	push	{r7, lr}
 8000a8a:	af00      	add	r7, sp, #0
 8000a8c:	4b06      	ldr	r3, [pc, #24]	; (8000aa8 <FLASH_Unlock+0x20>)
 8000a8e:	691a      	ldr	r2, [r3, #16]
 8000a90:	2380      	movs	r3, #128	; 0x80
 8000a92:	4013      	ands	r3, r2
 8000a94:	d005      	beq.n	8000aa2 <FLASH_Unlock+0x1a>
 8000a96:	4b04      	ldr	r3, [pc, #16]	; (8000aa8 <FLASH_Unlock+0x20>)
 8000a98:	4a04      	ldr	r2, [pc, #16]	; (8000aac <FLASH_Unlock+0x24>)
 8000a9a:	605a      	str	r2, [r3, #4]
 8000a9c:	4b02      	ldr	r3, [pc, #8]	; (8000aa8 <FLASH_Unlock+0x20>)
 8000a9e:	4a04      	ldr	r2, [pc, #16]	; (8000ab0 <FLASH_Unlock+0x28>)
 8000aa0:	605a      	str	r2, [r3, #4]
 8000aa2:	46bd      	mov	sp, r7
 8000aa4:	bd80      	pop	{r7, pc}
 8000aa6:	46c0      	nop			; (mov r8, r8)
 8000aa8:	40022000 	.word	0x40022000
 8000aac:	45670123 	.word	0x45670123
 8000ab0:	cdef89ab 	.word	0xcdef89ab

08000ab4 <FLASH_ErasePage>:
 8000ab4:	b590      	push	{r4, r7, lr}
 8000ab6:	b085      	sub	sp, #20
 8000ab8:	af00      	add	r7, sp, #0
 8000aba:	6078      	str	r0, [r7, #4]
 8000abc:	1c3b      	adds	r3, r7, #0
 8000abe:	330f      	adds	r3, #15
 8000ac0:	2204      	movs	r2, #4
 8000ac2:	701a      	strb	r2, [r3, #0]
 8000ac4:	687a      	ldr	r2, [r7, #4]
 8000ac6:	4b20      	ldr	r3, [pc, #128]	; (8000b48 <FLASH_ErasePage+0x94>)
 8000ac8:	429a      	cmp	r2, r3
 8000aca:	d903      	bls.n	8000ad4 <FLASH_ErasePage+0x20>
 8000acc:	687a      	ldr	r2, [r7, #4]
 8000ace:	4b1f      	ldr	r3, [pc, #124]	; (8000b4c <FLASH_ErasePage+0x98>)
 8000ad0:	429a      	cmp	r2, r3
 8000ad2:	d906      	bls.n	8000ae2 <FLASH_ErasePage+0x2e>
 8000ad4:	4a1e      	ldr	r2, [pc, #120]	; (8000b50 <FLASH_ErasePage+0x9c>)
 8000ad6:	2387      	movs	r3, #135	; 0x87
 8000ad8:	005b      	lsls	r3, r3, #1
 8000ada:	1c10      	adds	r0, r2, #0
 8000adc:	1c19      	adds	r1, r3, #0
 8000ade:	f001 fe0b 	bl	80026f8 <assert_failed>
 8000ae2:	1c3c      	adds	r4, r7, #0
 8000ae4:	340f      	adds	r4, #15
 8000ae6:	23b0      	movs	r3, #176	; 0xb0
 8000ae8:	031b      	lsls	r3, r3, #12
 8000aea:	1c18      	adds	r0, r3, #0
 8000aec:	f000 f8ce 	bl	8000c8c <FLASH_WaitForLastOperation>
 8000af0:	1c03      	adds	r3, r0, #0
 8000af2:	7023      	strb	r3, [r4, #0]
 8000af4:	1c3b      	adds	r3, r7, #0
 8000af6:	330f      	adds	r3, #15
 8000af8:	781b      	ldrb	r3, [r3, #0]
 8000afa:	2b04      	cmp	r3, #4
 8000afc:	d11d      	bne.n	8000b3a <FLASH_ErasePage+0x86>
 8000afe:	4b15      	ldr	r3, [pc, #84]	; (8000b54 <FLASH_ErasePage+0xa0>)
 8000b00:	4a14      	ldr	r2, [pc, #80]	; (8000b54 <FLASH_ErasePage+0xa0>)
 8000b02:	6912      	ldr	r2, [r2, #16]
 8000b04:	2102      	movs	r1, #2
 8000b06:	430a      	orrs	r2, r1
 8000b08:	611a      	str	r2, [r3, #16]
 8000b0a:	4b12      	ldr	r3, [pc, #72]	; (8000b54 <FLASH_ErasePage+0xa0>)
 8000b0c:	687a      	ldr	r2, [r7, #4]
 8000b0e:	615a      	str	r2, [r3, #20]
 8000b10:	4b10      	ldr	r3, [pc, #64]	; (8000b54 <FLASH_ErasePage+0xa0>)
 8000b12:	4a10      	ldr	r2, [pc, #64]	; (8000b54 <FLASH_ErasePage+0xa0>)
 8000b14:	6912      	ldr	r2, [r2, #16]
 8000b16:	2140      	movs	r1, #64	; 0x40
 8000b18:	430a      	orrs	r2, r1
 8000b1a:	611a      	str	r2, [r3, #16]
 8000b1c:	1c3c      	adds	r4, r7, #0
 8000b1e:	340f      	adds	r4, #15
 8000b20:	23b0      	movs	r3, #176	; 0xb0
 8000b22:	031b      	lsls	r3, r3, #12
 8000b24:	1c18      	adds	r0, r3, #0
 8000b26:	f000 f8b1 	bl	8000c8c <FLASH_WaitForLastOperation>
 8000b2a:	1c03      	adds	r3, r0, #0
 8000b2c:	7023      	strb	r3, [r4, #0]
 8000b2e:	4b09      	ldr	r3, [pc, #36]	; (8000b54 <FLASH_ErasePage+0xa0>)
 8000b30:	4a08      	ldr	r2, [pc, #32]	; (8000b54 <FLASH_ErasePage+0xa0>)
 8000b32:	6912      	ldr	r2, [r2, #16]
 8000b34:	2102      	movs	r1, #2
 8000b36:	438a      	bics	r2, r1
 8000b38:	611a      	str	r2, [r3, #16]
 8000b3a:	1c3b      	adds	r3, r7, #0
 8000b3c:	330f      	adds	r3, #15
 8000b3e:	781b      	ldrb	r3, [r3, #0]
 8000b40:	1c18      	adds	r0, r3, #0
 8000b42:	46bd      	mov	sp, r7
 8000b44:	b005      	add	sp, #20
 8000b46:	bd90      	pop	{r4, r7, pc}
 8000b48:	07ffffff 	.word	0x07ffffff
 8000b4c:	0800ffff 	.word	0x0800ffff
 8000b50:	080039dc 	.word	0x080039dc
 8000b54:	40022000 	.word	0x40022000

08000b58 <FLASH_ProgramWord>:
 8000b58:	b590      	push	{r4, r7, lr}
 8000b5a:	b085      	sub	sp, #20
 8000b5c:	af00      	add	r7, sp, #0
 8000b5e:	6078      	str	r0, [r7, #4]
 8000b60:	6039      	str	r1, [r7, #0]
 8000b62:	1c3b      	adds	r3, r7, #0
 8000b64:	330f      	adds	r3, #15
 8000b66:	2204      	movs	r2, #4
 8000b68:	701a      	strb	r2, [r3, #0]
 8000b6a:	2300      	movs	r3, #0
 8000b6c:	60bb      	str	r3, [r7, #8]
 8000b6e:	687a      	ldr	r2, [r7, #4]
 8000b70:	4b2c      	ldr	r3, [pc, #176]	; (8000c24 <FLASH_ProgramWord+0xcc>)
 8000b72:	429a      	cmp	r2, r3
 8000b74:	d903      	bls.n	8000b7e <FLASH_ProgramWord+0x26>
 8000b76:	687a      	ldr	r2, [r7, #4]
 8000b78:	4b2b      	ldr	r3, [pc, #172]	; (8000c28 <FLASH_ProgramWord+0xd0>)
 8000b7a:	429a      	cmp	r2, r3
 8000b7c:	d906      	bls.n	8000b8c <FLASH_ProgramWord+0x34>
 8000b7e:	4a2b      	ldr	r2, [pc, #172]	; (8000c2c <FLASH_ProgramWord+0xd4>)
 8000b80:	23ac      	movs	r3, #172	; 0xac
 8000b82:	005b      	lsls	r3, r3, #1
 8000b84:	1c10      	adds	r0, r2, #0
 8000b86:	1c19      	adds	r1, r3, #0
 8000b88:	f001 fdb6 	bl	80026f8 <assert_failed>
 8000b8c:	1c3c      	adds	r4, r7, #0
 8000b8e:	340f      	adds	r4, #15
 8000b90:	23b0      	movs	r3, #176	; 0xb0
 8000b92:	031b      	lsls	r3, r3, #12
 8000b94:	1c18      	adds	r0, r3, #0
 8000b96:	f000 f879 	bl	8000c8c <FLASH_WaitForLastOperation>
 8000b9a:	1c03      	adds	r3, r0, #0
 8000b9c:	7023      	strb	r3, [r4, #0]
 8000b9e:	1c3b      	adds	r3, r7, #0
 8000ba0:	330f      	adds	r3, #15
 8000ba2:	781b      	ldrb	r3, [r3, #0]
 8000ba4:	2b04      	cmp	r3, #4
 8000ba6:	d135      	bne.n	8000c14 <FLASH_ProgramWord+0xbc>
 8000ba8:	4b21      	ldr	r3, [pc, #132]	; (8000c30 <FLASH_ProgramWord+0xd8>)
 8000baa:	4a21      	ldr	r2, [pc, #132]	; (8000c30 <FLASH_ProgramWord+0xd8>)
 8000bac:	6912      	ldr	r2, [r2, #16]
 8000bae:	2101      	movs	r1, #1
 8000bb0:	430a      	orrs	r2, r1
 8000bb2:	611a      	str	r2, [r3, #16]
 8000bb4:	687b      	ldr	r3, [r7, #4]
 8000bb6:	683a      	ldr	r2, [r7, #0]
 8000bb8:	b292      	uxth	r2, r2
 8000bba:	801a      	strh	r2, [r3, #0]
 8000bbc:	1c3c      	adds	r4, r7, #0
 8000bbe:	340f      	adds	r4, #15
 8000bc0:	23b0      	movs	r3, #176	; 0xb0
 8000bc2:	031b      	lsls	r3, r3, #12
 8000bc4:	1c18      	adds	r0, r3, #0
 8000bc6:	f000 f861 	bl	8000c8c <FLASH_WaitForLastOperation>
 8000bca:	1c03      	adds	r3, r0, #0
 8000bcc:	7023      	strb	r3, [r4, #0]
 8000bce:	1c3b      	adds	r3, r7, #0
 8000bd0:	330f      	adds	r3, #15
 8000bd2:	781b      	ldrb	r3, [r3, #0]
 8000bd4:	2b04      	cmp	r3, #4
 8000bd6:	d117      	bne.n	8000c08 <FLASH_ProgramWord+0xb0>
 8000bd8:	687b      	ldr	r3, [r7, #4]
 8000bda:	3302      	adds	r3, #2
 8000bdc:	60bb      	str	r3, [r7, #8]
 8000bde:	68bb      	ldr	r3, [r7, #8]
 8000be0:	683a      	ldr	r2, [r7, #0]
 8000be2:	0c12      	lsrs	r2, r2, #16
 8000be4:	b292      	uxth	r2, r2
 8000be6:	801a      	strh	r2, [r3, #0]
 8000be8:	1c3c      	adds	r4, r7, #0
 8000bea:	340f      	adds	r4, #15
 8000bec:	23b0      	movs	r3, #176	; 0xb0
 8000bee:	031b      	lsls	r3, r3, #12
 8000bf0:	1c18      	adds	r0, r3, #0
 8000bf2:	f000 f84b 	bl	8000c8c <FLASH_WaitForLastOperation>
 8000bf6:	1c03      	adds	r3, r0, #0
 8000bf8:	7023      	strb	r3, [r4, #0]
 8000bfa:	4b0d      	ldr	r3, [pc, #52]	; (8000c30 <FLASH_ProgramWord+0xd8>)
 8000bfc:	4a0c      	ldr	r2, [pc, #48]	; (8000c30 <FLASH_ProgramWord+0xd8>)
 8000bfe:	6912      	ldr	r2, [r2, #16]
 8000c00:	2101      	movs	r1, #1
 8000c02:	438a      	bics	r2, r1
 8000c04:	611a      	str	r2, [r3, #16]
 8000c06:	e005      	b.n	8000c14 <FLASH_ProgramWord+0xbc>
 8000c08:	4b09      	ldr	r3, [pc, #36]	; (8000c30 <FLASH_ProgramWord+0xd8>)
 8000c0a:	4a09      	ldr	r2, [pc, #36]	; (8000c30 <FLASH_ProgramWord+0xd8>)
 8000c0c:	6912      	ldr	r2, [r2, #16]
 8000c0e:	2101      	movs	r1, #1
 8000c10:	438a      	bics	r2, r1
 8000c12:	611a      	str	r2, [r3, #16]
 8000c14:	1c3b      	adds	r3, r7, #0
 8000c16:	330f      	adds	r3, #15
 8000c18:	781b      	ldrb	r3, [r3, #0]
 8000c1a:	1c18      	adds	r0, r3, #0
 8000c1c:	46bd      	mov	sp, r7
 8000c1e:	b005      	add	sp, #20
 8000c20:	bd90      	pop	{r4, r7, pc}
 8000c22:	46c0      	nop			; (mov r8, r8)
 8000c24:	07ffffff 	.word	0x07ffffff
 8000c28:	0800ffff 	.word	0x0800ffff
 8000c2c:	080039dc 	.word	0x080039dc
 8000c30:	40022000 	.word	0x40022000

08000c34 <FLASH_GetStatus>:
 8000c34:	b580      	push	{r7, lr}
 8000c36:	b082      	sub	sp, #8
 8000c38:	af00      	add	r7, sp, #0
 8000c3a:	1dfb      	adds	r3, r7, #7
 8000c3c:	2204      	movs	r2, #4
 8000c3e:	701a      	strb	r2, [r3, #0]
 8000c40:	4b11      	ldr	r3, [pc, #68]	; (8000c88 <FLASH_GetStatus+0x54>)
 8000c42:	68da      	ldr	r2, [r3, #12]
 8000c44:	2301      	movs	r3, #1
 8000c46:	4013      	ands	r3, r2
 8000c48:	d003      	beq.n	8000c52 <FLASH_GetStatus+0x1e>
 8000c4a:	1dfb      	adds	r3, r7, #7
 8000c4c:	2201      	movs	r2, #1
 8000c4e:	701a      	strb	r2, [r3, #0]
 8000c50:	e014      	b.n	8000c7c <FLASH_GetStatus+0x48>
 8000c52:	4b0d      	ldr	r3, [pc, #52]	; (8000c88 <FLASH_GetStatus+0x54>)
 8000c54:	68da      	ldr	r2, [r3, #12]
 8000c56:	2310      	movs	r3, #16
 8000c58:	4013      	ands	r3, r2
 8000c5a:	d003      	beq.n	8000c64 <FLASH_GetStatus+0x30>
 8000c5c:	1dfb      	adds	r3, r7, #7
 8000c5e:	2202      	movs	r2, #2
 8000c60:	701a      	strb	r2, [r3, #0]
 8000c62:	e00b      	b.n	8000c7c <FLASH_GetStatus+0x48>
 8000c64:	4b08      	ldr	r3, [pc, #32]	; (8000c88 <FLASH_GetStatus+0x54>)
 8000c66:	68da      	ldr	r2, [r3, #12]
 8000c68:	2304      	movs	r3, #4
 8000c6a:	4013      	ands	r3, r2
 8000c6c:	d003      	beq.n	8000c76 <FLASH_GetStatus+0x42>
 8000c6e:	1dfb      	adds	r3, r7, #7
 8000c70:	2203      	movs	r2, #3
 8000c72:	701a      	strb	r2, [r3, #0]
 8000c74:	e002      	b.n	8000c7c <FLASH_GetStatus+0x48>
 8000c76:	1dfb      	adds	r3, r7, #7
 8000c78:	2204      	movs	r2, #4
 8000c7a:	701a      	strb	r2, [r3, #0]
 8000c7c:	1dfb      	adds	r3, r7, #7
 8000c7e:	781b      	ldrb	r3, [r3, #0]
 8000c80:	1c18      	adds	r0, r3, #0
 8000c82:	46bd      	mov	sp, r7
 8000c84:	b002      	add	sp, #8
 8000c86:	bd80      	pop	{r7, pc}
 8000c88:	40022000 	.word	0x40022000

08000c8c <FLASH_WaitForLastOperation>:
 8000c8c:	b590      	push	{r4, r7, lr}
 8000c8e:	b085      	sub	sp, #20
 8000c90:	af00      	add	r7, sp, #0
 8000c92:	6078      	str	r0, [r7, #4]
 8000c94:	1c3b      	adds	r3, r7, #0
 8000c96:	330f      	adds	r3, #15
 8000c98:	2204      	movs	r2, #4
 8000c9a:	701a      	strb	r2, [r3, #0]
 8000c9c:	1c3c      	adds	r4, r7, #0
 8000c9e:	340f      	adds	r4, #15
 8000ca0:	f7ff ffc8 	bl	8000c34 <FLASH_GetStatus>
 8000ca4:	1c03      	adds	r3, r0, #0
 8000ca6:	7023      	strb	r3, [r4, #0]
 8000ca8:	e008      	b.n	8000cbc <FLASH_WaitForLastOperation+0x30>
 8000caa:	1c3c      	adds	r4, r7, #0
 8000cac:	340f      	adds	r4, #15
 8000cae:	f7ff ffc1 	bl	8000c34 <FLASH_GetStatus>
 8000cb2:	1c03      	adds	r3, r0, #0
 8000cb4:	7023      	strb	r3, [r4, #0]
 8000cb6:	687b      	ldr	r3, [r7, #4]
 8000cb8:	3b01      	subs	r3, #1
 8000cba:	607b      	str	r3, [r7, #4]
 8000cbc:	1c3b      	adds	r3, r7, #0
 8000cbe:	330f      	adds	r3, #15
 8000cc0:	781b      	ldrb	r3, [r3, #0]
 8000cc2:	2b01      	cmp	r3, #1
 8000cc4:	d102      	bne.n	8000ccc <FLASH_WaitForLastOperation+0x40>
 8000cc6:	687b      	ldr	r3, [r7, #4]
 8000cc8:	2b00      	cmp	r3, #0
 8000cca:	d1ee      	bne.n	8000caa <FLASH_WaitForLastOperation+0x1e>
 8000ccc:	687b      	ldr	r3, [r7, #4]
 8000cce:	2b00      	cmp	r3, #0
 8000cd0:	d103      	bne.n	8000cda <FLASH_WaitForLastOperation+0x4e>
 8000cd2:	1c3b      	adds	r3, r7, #0
 8000cd4:	330f      	adds	r3, #15
 8000cd6:	2205      	movs	r2, #5
 8000cd8:	701a      	strb	r2, [r3, #0]
 8000cda:	1c3b      	adds	r3, r7, #0
 8000cdc:	330f      	adds	r3, #15
 8000cde:	781b      	ldrb	r3, [r3, #0]
 8000ce0:	1c18      	adds	r0, r3, #0
 8000ce2:	46bd      	mov	sp, r7
 8000ce4:	b005      	add	sp, #20
 8000ce6:	bd90      	pop	{r4, r7, pc}

08000ce8 <TIM_TimeBaseInit>:
 8000ce8:	b580      	push	{r7, lr}
 8000cea:	b084      	sub	sp, #16
 8000cec:	af00      	add	r7, sp, #0
 8000cee:	6078      	str	r0, [r7, #4]
 8000cf0:	6039      	str	r1, [r7, #0]
 8000cf2:	1c3b      	adds	r3, r7, #0
 8000cf4:	330e      	adds	r3, #14
 8000cf6:	2200      	movs	r2, #0
 8000cf8:	801a      	strh	r2, [r3, #0]
 8000cfa:	687a      	ldr	r2, [r7, #4]
 8000cfc:	4b5c      	ldr	r3, [pc, #368]	; (8000e70 <TIM_TimeBaseInit+0x188>)
 8000cfe:	429a      	cmp	r2, r3
 8000d00:	d023      	beq.n	8000d4a <TIM_TimeBaseInit+0x62>
 8000d02:	687a      	ldr	r2, [r7, #4]
 8000d04:	2380      	movs	r3, #128	; 0x80
 8000d06:	05db      	lsls	r3, r3, #23
 8000d08:	429a      	cmp	r2, r3
 8000d0a:	d01e      	beq.n	8000d4a <TIM_TimeBaseInit+0x62>
 8000d0c:	687a      	ldr	r2, [r7, #4]
 8000d0e:	4b59      	ldr	r3, [pc, #356]	; (8000e74 <TIM_TimeBaseInit+0x18c>)
 8000d10:	429a      	cmp	r2, r3
 8000d12:	d01a      	beq.n	8000d4a <TIM_TimeBaseInit+0x62>
 8000d14:	687a      	ldr	r2, [r7, #4]
 8000d16:	4b58      	ldr	r3, [pc, #352]	; (8000e78 <TIM_TimeBaseInit+0x190>)
 8000d18:	429a      	cmp	r2, r3
 8000d1a:	d016      	beq.n	8000d4a <TIM_TimeBaseInit+0x62>
 8000d1c:	687a      	ldr	r2, [r7, #4]
 8000d1e:	4b57      	ldr	r3, [pc, #348]	; (8000e7c <TIM_TimeBaseInit+0x194>)
 8000d20:	429a      	cmp	r2, r3
 8000d22:	d012      	beq.n	8000d4a <TIM_TimeBaseInit+0x62>
 8000d24:	687a      	ldr	r2, [r7, #4]
 8000d26:	4b56      	ldr	r3, [pc, #344]	; (8000e80 <TIM_TimeBaseInit+0x198>)
 8000d28:	429a      	cmp	r2, r3
 8000d2a:	d00e      	beq.n	8000d4a <TIM_TimeBaseInit+0x62>
 8000d2c:	687a      	ldr	r2, [r7, #4]
 8000d2e:	4b55      	ldr	r3, [pc, #340]	; (8000e84 <TIM_TimeBaseInit+0x19c>)
 8000d30:	429a      	cmp	r2, r3
 8000d32:	d00a      	beq.n	8000d4a <TIM_TimeBaseInit+0x62>
 8000d34:	687a      	ldr	r2, [r7, #4]
 8000d36:	4b54      	ldr	r3, [pc, #336]	; (8000e88 <TIM_TimeBaseInit+0x1a0>)
 8000d38:	429a      	cmp	r2, r3
 8000d3a:	d006      	beq.n	8000d4a <TIM_TimeBaseInit+0x62>
 8000d3c:	4a53      	ldr	r2, [pc, #332]	; (8000e8c <TIM_TimeBaseInit+0x1a4>)
 8000d3e:	2302      	movs	r3, #2
 8000d40:	33ff      	adds	r3, #255	; 0xff
 8000d42:	1c10      	adds	r0, r2, #0
 8000d44:	1c19      	adds	r1, r3, #0
 8000d46:	f001 fcd7 	bl	80026f8 <assert_failed>
 8000d4a:	683b      	ldr	r3, [r7, #0]
 8000d4c:	885b      	ldrh	r3, [r3, #2]
 8000d4e:	2b00      	cmp	r3, #0
 8000d50:	d016      	beq.n	8000d80 <TIM_TimeBaseInit+0x98>
 8000d52:	683b      	ldr	r3, [r7, #0]
 8000d54:	885b      	ldrh	r3, [r3, #2]
 8000d56:	2b10      	cmp	r3, #16
 8000d58:	d012      	beq.n	8000d80 <TIM_TimeBaseInit+0x98>
 8000d5a:	683b      	ldr	r3, [r7, #0]
 8000d5c:	885b      	ldrh	r3, [r3, #2]
 8000d5e:	2b20      	cmp	r3, #32
 8000d60:	d00e      	beq.n	8000d80 <TIM_TimeBaseInit+0x98>
 8000d62:	683b      	ldr	r3, [r7, #0]
 8000d64:	885b      	ldrh	r3, [r3, #2]
 8000d66:	2b40      	cmp	r3, #64	; 0x40
 8000d68:	d00a      	beq.n	8000d80 <TIM_TimeBaseInit+0x98>
 8000d6a:	683b      	ldr	r3, [r7, #0]
 8000d6c:	885b      	ldrh	r3, [r3, #2]
 8000d6e:	2b60      	cmp	r3, #96	; 0x60
 8000d70:	d006      	beq.n	8000d80 <TIM_TimeBaseInit+0x98>
 8000d72:	4a46      	ldr	r2, [pc, #280]	; (8000e8c <TIM_TimeBaseInit+0x1a4>)
 8000d74:	2381      	movs	r3, #129	; 0x81
 8000d76:	005b      	lsls	r3, r3, #1
 8000d78:	1c10      	adds	r0, r2, #0
 8000d7a:	1c19      	adds	r1, r3, #0
 8000d7c:	f001 fcbc 	bl	80026f8 <assert_failed>
 8000d80:	683b      	ldr	r3, [r7, #0]
 8000d82:	891b      	ldrh	r3, [r3, #8]
 8000d84:	2b00      	cmp	r3, #0
 8000d86:	d012      	beq.n	8000dae <TIM_TimeBaseInit+0xc6>
 8000d88:	683b      	ldr	r3, [r7, #0]
 8000d8a:	891a      	ldrh	r2, [r3, #8]
 8000d8c:	2380      	movs	r3, #128	; 0x80
 8000d8e:	005b      	lsls	r3, r3, #1
 8000d90:	429a      	cmp	r2, r3
 8000d92:	d00c      	beq.n	8000dae <TIM_TimeBaseInit+0xc6>
 8000d94:	683b      	ldr	r3, [r7, #0]
 8000d96:	891a      	ldrh	r2, [r3, #8]
 8000d98:	2380      	movs	r3, #128	; 0x80
 8000d9a:	009b      	lsls	r3, r3, #2
 8000d9c:	429a      	cmp	r2, r3
 8000d9e:	d006      	beq.n	8000dae <TIM_TimeBaseInit+0xc6>
 8000da0:	4a3a      	ldr	r2, [pc, #232]	; (8000e8c <TIM_TimeBaseInit+0x1a4>)
 8000da2:	2304      	movs	r3, #4
 8000da4:	33ff      	adds	r3, #255	; 0xff
 8000da6:	1c10      	adds	r0, r2, #0
 8000da8:	1c19      	adds	r1, r3, #0
 8000daa:	f001 fca5 	bl	80026f8 <assert_failed>
 8000dae:	1c3b      	adds	r3, r7, #0
 8000db0:	330e      	adds	r3, #14
 8000db2:	687a      	ldr	r2, [r7, #4]
 8000db4:	8812      	ldrh	r2, [r2, #0]
 8000db6:	801a      	strh	r2, [r3, #0]
 8000db8:	687a      	ldr	r2, [r7, #4]
 8000dba:	4b2d      	ldr	r3, [pc, #180]	; (8000e70 <TIM_TimeBaseInit+0x188>)
 8000dbc:	429a      	cmp	r2, r3
 8000dbe:	d008      	beq.n	8000dd2 <TIM_TimeBaseInit+0xea>
 8000dc0:	687a      	ldr	r2, [r7, #4]
 8000dc2:	2380      	movs	r3, #128	; 0x80
 8000dc4:	05db      	lsls	r3, r3, #23
 8000dc6:	429a      	cmp	r2, r3
 8000dc8:	d003      	beq.n	8000dd2 <TIM_TimeBaseInit+0xea>
 8000dca:	687a      	ldr	r2, [r7, #4]
 8000dcc:	4b29      	ldr	r3, [pc, #164]	; (8000e74 <TIM_TimeBaseInit+0x18c>)
 8000dce:	429a      	cmp	r2, r3
 8000dd0:	d110      	bne.n	8000df4 <TIM_TimeBaseInit+0x10c>
 8000dd2:	1c3b      	adds	r3, r7, #0
 8000dd4:	330e      	adds	r3, #14
 8000dd6:	1c3a      	adds	r2, r7, #0
 8000dd8:	320e      	adds	r2, #14
 8000dda:	8812      	ldrh	r2, [r2, #0]
 8000ddc:	2170      	movs	r1, #112	; 0x70
 8000dde:	438a      	bics	r2, r1
 8000de0:	801a      	strh	r2, [r3, #0]
 8000de2:	683b      	ldr	r3, [r7, #0]
 8000de4:	8859      	ldrh	r1, [r3, #2]
 8000de6:	1c3b      	adds	r3, r7, #0
 8000de8:	330e      	adds	r3, #14
 8000dea:	1c3a      	adds	r2, r7, #0
 8000dec:	320e      	adds	r2, #14
 8000dee:	8812      	ldrh	r2, [r2, #0]
 8000df0:	430a      	orrs	r2, r1
 8000df2:	801a      	strh	r2, [r3, #0]
 8000df4:	687a      	ldr	r2, [r7, #4]
 8000df6:	4b20      	ldr	r3, [pc, #128]	; (8000e78 <TIM_TimeBaseInit+0x190>)
 8000df8:	429a      	cmp	r2, r3
 8000dfa:	d010      	beq.n	8000e1e <TIM_TimeBaseInit+0x136>
 8000dfc:	1c3b      	adds	r3, r7, #0
 8000dfe:	330e      	adds	r3, #14
 8000e00:	1c3a      	adds	r2, r7, #0
 8000e02:	320e      	adds	r2, #14
 8000e04:	8811      	ldrh	r1, [r2, #0]
 8000e06:	4a22      	ldr	r2, [pc, #136]	; (8000e90 <TIM_TimeBaseInit+0x1a8>)
 8000e08:	400a      	ands	r2, r1
 8000e0a:	801a      	strh	r2, [r3, #0]
 8000e0c:	683b      	ldr	r3, [r7, #0]
 8000e0e:	8919      	ldrh	r1, [r3, #8]
 8000e10:	1c3b      	adds	r3, r7, #0
 8000e12:	330e      	adds	r3, #14
 8000e14:	1c3a      	adds	r2, r7, #0
 8000e16:	320e      	adds	r2, #14
 8000e18:	8812      	ldrh	r2, [r2, #0]
 8000e1a:	430a      	orrs	r2, r1
 8000e1c:	801a      	strh	r2, [r3, #0]
 8000e1e:	687b      	ldr	r3, [r7, #4]
 8000e20:	1c3a      	adds	r2, r7, #0
 8000e22:	320e      	adds	r2, #14
 8000e24:	8812      	ldrh	r2, [r2, #0]
 8000e26:	801a      	strh	r2, [r3, #0]
 8000e28:	683b      	ldr	r3, [r7, #0]
 8000e2a:	685a      	ldr	r2, [r3, #4]
 8000e2c:	687b      	ldr	r3, [r7, #4]
 8000e2e:	62da      	str	r2, [r3, #44]	; 0x2c
 8000e30:	683b      	ldr	r3, [r7, #0]
 8000e32:	881a      	ldrh	r2, [r3, #0]
 8000e34:	687b      	ldr	r3, [r7, #4]
 8000e36:	851a      	strh	r2, [r3, #40]	; 0x28
 8000e38:	687a      	ldr	r2, [r7, #4]
 8000e3a:	4b0d      	ldr	r3, [pc, #52]	; (8000e70 <TIM_TimeBaseInit+0x188>)
 8000e3c:	429a      	cmp	r2, r3
 8000e3e:	d00b      	beq.n	8000e58 <TIM_TimeBaseInit+0x170>
 8000e40:	687a      	ldr	r2, [r7, #4]
 8000e42:	4b0f      	ldr	r3, [pc, #60]	; (8000e80 <TIM_TimeBaseInit+0x198>)
 8000e44:	429a      	cmp	r2, r3
 8000e46:	d007      	beq.n	8000e58 <TIM_TimeBaseInit+0x170>
 8000e48:	687a      	ldr	r2, [r7, #4]
 8000e4a:	4b0e      	ldr	r3, [pc, #56]	; (8000e84 <TIM_TimeBaseInit+0x19c>)
 8000e4c:	429a      	cmp	r2, r3
 8000e4e:	d003      	beq.n	8000e58 <TIM_TimeBaseInit+0x170>
 8000e50:	687a      	ldr	r2, [r7, #4]
 8000e52:	4b0d      	ldr	r3, [pc, #52]	; (8000e88 <TIM_TimeBaseInit+0x1a0>)
 8000e54:	429a      	cmp	r2, r3
 8000e56:	d104      	bne.n	8000e62 <TIM_TimeBaseInit+0x17a>
 8000e58:	683b      	ldr	r3, [r7, #0]
 8000e5a:	7a9b      	ldrb	r3, [r3, #10]
 8000e5c:	1c1a      	adds	r2, r3, #0
 8000e5e:	687b      	ldr	r3, [r7, #4]
 8000e60:	861a      	strh	r2, [r3, #48]	; 0x30
 8000e62:	687b      	ldr	r3, [r7, #4]
 8000e64:	2201      	movs	r2, #1
 8000e66:	829a      	strh	r2, [r3, #20]
 8000e68:	46bd      	mov	sp, r7
 8000e6a:	b004      	add	sp, #16
 8000e6c:	bd80      	pop	{r7, pc}
 8000e6e:	46c0      	nop			; (mov r8, r8)
 8000e70:	40012c00 	.word	0x40012c00
 8000e74:	40000400 	.word	0x40000400
 8000e78:	40001000 	.word	0x40001000
 8000e7c:	40002000 	.word	0x40002000
 8000e80:	40014000 	.word	0x40014000
 8000e84:	40014400 	.word	0x40014400
 8000e88:	40014800 	.word	0x40014800
 8000e8c:	08003a1c 	.word	0x08003a1c
 8000e90:	fffffcff 	.word	0xfffffcff

08000e94 <TIM_ARRPreloadConfig>:
 8000e94:	b580      	push	{r7, lr}
 8000e96:	b082      	sub	sp, #8
 8000e98:	af00      	add	r7, sp, #0
 8000e9a:	6078      	str	r0, [r7, #4]
 8000e9c:	1c0a      	adds	r2, r1, #0
 8000e9e:	1cfb      	adds	r3, r7, #3
 8000ea0:	701a      	strb	r2, [r3, #0]
 8000ea2:	687a      	ldr	r2, [r7, #4]
 8000ea4:	4b26      	ldr	r3, [pc, #152]	; (8000f40 <TIM_ARRPreloadConfig+0xac>)
 8000ea6:	429a      	cmp	r2, r3
 8000ea8:	d023      	beq.n	8000ef2 <TIM_ARRPreloadConfig+0x5e>
 8000eaa:	687a      	ldr	r2, [r7, #4]
 8000eac:	2380      	movs	r3, #128	; 0x80
 8000eae:	05db      	lsls	r3, r3, #23
 8000eb0:	429a      	cmp	r2, r3
 8000eb2:	d01e      	beq.n	8000ef2 <TIM_ARRPreloadConfig+0x5e>
 8000eb4:	687a      	ldr	r2, [r7, #4]
 8000eb6:	4b23      	ldr	r3, [pc, #140]	; (8000f44 <TIM_ARRPreloadConfig+0xb0>)
 8000eb8:	429a      	cmp	r2, r3
 8000eba:	d01a      	beq.n	8000ef2 <TIM_ARRPreloadConfig+0x5e>
 8000ebc:	687a      	ldr	r2, [r7, #4]
 8000ebe:	4b22      	ldr	r3, [pc, #136]	; (8000f48 <TIM_ARRPreloadConfig+0xb4>)
 8000ec0:	429a      	cmp	r2, r3
 8000ec2:	d016      	beq.n	8000ef2 <TIM_ARRPreloadConfig+0x5e>
 8000ec4:	687a      	ldr	r2, [r7, #4]
 8000ec6:	4b21      	ldr	r3, [pc, #132]	; (8000f4c <TIM_ARRPreloadConfig+0xb8>)
 8000ec8:	429a      	cmp	r2, r3
 8000eca:	d012      	beq.n	8000ef2 <TIM_ARRPreloadConfig+0x5e>
 8000ecc:	687a      	ldr	r2, [r7, #4]
 8000ece:	4b20      	ldr	r3, [pc, #128]	; (8000f50 <TIM_ARRPreloadConfig+0xbc>)
 8000ed0:	429a      	cmp	r2, r3
 8000ed2:	d00e      	beq.n	8000ef2 <TIM_ARRPreloadConfig+0x5e>
 8000ed4:	687a      	ldr	r2, [r7, #4]
 8000ed6:	4b1f      	ldr	r3, [pc, #124]	; (8000f54 <TIM_ARRPreloadConfig+0xc0>)
 8000ed8:	429a      	cmp	r2, r3
 8000eda:	d00a      	beq.n	8000ef2 <TIM_ARRPreloadConfig+0x5e>
 8000edc:	687a      	ldr	r2, [r7, #4]
 8000ede:	4b1e      	ldr	r3, [pc, #120]	; (8000f58 <TIM_ARRPreloadConfig+0xc4>)
 8000ee0:	429a      	cmp	r2, r3
 8000ee2:	d006      	beq.n	8000ef2 <TIM_ARRPreloadConfig+0x5e>
 8000ee4:	4a1d      	ldr	r2, [pc, #116]	; (8000f5c <TIM_ARRPreloadConfig+0xc8>)
 8000ee6:	23ec      	movs	r3, #236	; 0xec
 8000ee8:	33ff      	adds	r3, #255	; 0xff
 8000eea:	1c10      	adds	r0, r2, #0
 8000eec:	1c19      	adds	r1, r3, #0
 8000eee:	f001 fc03 	bl	80026f8 <assert_failed>
 8000ef2:	1cfb      	adds	r3, r7, #3
 8000ef4:	781b      	ldrb	r3, [r3, #0]
 8000ef6:	2b00      	cmp	r3, #0
 8000ef8:	d00a      	beq.n	8000f10 <TIM_ARRPreloadConfig+0x7c>
 8000efa:	1cfb      	adds	r3, r7, #3
 8000efc:	781b      	ldrb	r3, [r3, #0]
 8000efe:	2b01      	cmp	r3, #1
 8000f00:	d006      	beq.n	8000f10 <TIM_ARRPreloadConfig+0x7c>
 8000f02:	4a16      	ldr	r2, [pc, #88]	; (8000f5c <TIM_ARRPreloadConfig+0xc8>)
 8000f04:	23f6      	movs	r3, #246	; 0xf6
 8000f06:	005b      	lsls	r3, r3, #1
 8000f08:	1c10      	adds	r0, r2, #0
 8000f0a:	1c19      	adds	r1, r3, #0
 8000f0c:	f001 fbf4 	bl	80026f8 <assert_failed>
 8000f10:	1cfb      	adds	r3, r7, #3
 8000f12:	781b      	ldrb	r3, [r3, #0]
 8000f14:	2b00      	cmp	r3, #0
 8000f16:	d008      	beq.n	8000f2a <TIM_ARRPreloadConfig+0x96>
 8000f18:	687b      	ldr	r3, [r7, #4]
 8000f1a:	881b      	ldrh	r3, [r3, #0]
 8000f1c:	b29b      	uxth	r3, r3
 8000f1e:	2280      	movs	r2, #128	; 0x80
 8000f20:	4313      	orrs	r3, r2
 8000f22:	b29a      	uxth	r2, r3
 8000f24:	687b      	ldr	r3, [r7, #4]
 8000f26:	801a      	strh	r2, [r3, #0]
 8000f28:	e007      	b.n	8000f3a <TIM_ARRPreloadConfig+0xa6>
 8000f2a:	687b      	ldr	r3, [r7, #4]
 8000f2c:	881b      	ldrh	r3, [r3, #0]
 8000f2e:	b29b      	uxth	r3, r3
 8000f30:	2280      	movs	r2, #128	; 0x80
 8000f32:	4393      	bics	r3, r2
 8000f34:	b29a      	uxth	r2, r3
 8000f36:	687b      	ldr	r3, [r7, #4]
 8000f38:	801a      	strh	r2, [r3, #0]
 8000f3a:	46bd      	mov	sp, r7
 8000f3c:	b002      	add	sp, #8
 8000f3e:	bd80      	pop	{r7, pc}
 8000f40:	40012c00 	.word	0x40012c00
 8000f44:	40000400 	.word	0x40000400
 8000f48:	40001000 	.word	0x40001000
 8000f4c:	40002000 	.word	0x40002000
 8000f50:	40014000 	.word	0x40014000
 8000f54:	40014400 	.word	0x40014400
 8000f58:	40014800 	.word	0x40014800
 8000f5c:	08003a1c 	.word	0x08003a1c

08000f60 <TIM_Cmd>:
 8000f60:	b580      	push	{r7, lr}
 8000f62:	b082      	sub	sp, #8
 8000f64:	af00      	add	r7, sp, #0
 8000f66:	6078      	str	r0, [r7, #4]
 8000f68:	1c0a      	adds	r2, r1, #0
 8000f6a:	1cfb      	adds	r3, r7, #3
 8000f6c:	701a      	strb	r2, [r3, #0]
 8000f6e:	687a      	ldr	r2, [r7, #4]
 8000f70:	4b25      	ldr	r3, [pc, #148]	; (8001008 <TIM_Cmd+0xa8>)
 8000f72:	429a      	cmp	r2, r3
 8000f74:	d022      	beq.n	8000fbc <TIM_Cmd+0x5c>
 8000f76:	687a      	ldr	r2, [r7, #4]
 8000f78:	2380      	movs	r3, #128	; 0x80
 8000f7a:	05db      	lsls	r3, r3, #23
 8000f7c:	429a      	cmp	r2, r3
 8000f7e:	d01d      	beq.n	8000fbc <TIM_Cmd+0x5c>
 8000f80:	687a      	ldr	r2, [r7, #4]
 8000f82:	4b22      	ldr	r3, [pc, #136]	; (800100c <TIM_Cmd+0xac>)
 8000f84:	429a      	cmp	r2, r3
 8000f86:	d019      	beq.n	8000fbc <TIM_Cmd+0x5c>
 8000f88:	687a      	ldr	r2, [r7, #4]
 8000f8a:	4b21      	ldr	r3, [pc, #132]	; (8001010 <TIM_Cmd+0xb0>)
 8000f8c:	429a      	cmp	r2, r3
 8000f8e:	d015      	beq.n	8000fbc <TIM_Cmd+0x5c>
 8000f90:	687a      	ldr	r2, [r7, #4]
 8000f92:	4b20      	ldr	r3, [pc, #128]	; (8001014 <TIM_Cmd+0xb4>)
 8000f94:	429a      	cmp	r2, r3
 8000f96:	d011      	beq.n	8000fbc <TIM_Cmd+0x5c>
 8000f98:	687a      	ldr	r2, [r7, #4]
 8000f9a:	4b1f      	ldr	r3, [pc, #124]	; (8001018 <TIM_Cmd+0xb8>)
 8000f9c:	429a      	cmp	r2, r3
 8000f9e:	d00d      	beq.n	8000fbc <TIM_Cmd+0x5c>
 8000fa0:	687a      	ldr	r2, [r7, #4]
 8000fa2:	4b1e      	ldr	r3, [pc, #120]	; (800101c <TIM_Cmd+0xbc>)
 8000fa4:	429a      	cmp	r2, r3
 8000fa6:	d009      	beq.n	8000fbc <TIM_Cmd+0x5c>
 8000fa8:	687a      	ldr	r2, [r7, #4]
 8000faa:	4b1d      	ldr	r3, [pc, #116]	; (8001020 <TIM_Cmd+0xc0>)
 8000fac:	429a      	cmp	r2, r3
 8000fae:	d005      	beq.n	8000fbc <TIM_Cmd+0x5c>
 8000fb0:	4a1c      	ldr	r2, [pc, #112]	; (8001024 <TIM_Cmd+0xc4>)
 8000fb2:	4b1d      	ldr	r3, [pc, #116]	; (8001028 <TIM_Cmd+0xc8>)
 8000fb4:	1c10      	adds	r0, r2, #0
 8000fb6:	1c19      	adds	r1, r3, #0
 8000fb8:	f001 fb9e 	bl	80026f8 <assert_failed>
 8000fbc:	1cfb      	adds	r3, r7, #3
 8000fbe:	781b      	ldrb	r3, [r3, #0]
 8000fc0:	2b00      	cmp	r3, #0
 8000fc2:	d009      	beq.n	8000fd8 <TIM_Cmd+0x78>
 8000fc4:	1cfb      	adds	r3, r7, #3
 8000fc6:	781b      	ldrb	r3, [r3, #0]
 8000fc8:	2b01      	cmp	r3, #1
 8000fca:	d005      	beq.n	8000fd8 <TIM_Cmd+0x78>
 8000fcc:	4a15      	ldr	r2, [pc, #84]	; (8001024 <TIM_Cmd+0xc4>)
 8000fce:	4b17      	ldr	r3, [pc, #92]	; (800102c <TIM_Cmd+0xcc>)
 8000fd0:	1c10      	adds	r0, r2, #0
 8000fd2:	1c19      	adds	r1, r3, #0
 8000fd4:	f001 fb90 	bl	80026f8 <assert_failed>
 8000fd8:	1cfb      	adds	r3, r7, #3
 8000fda:	781b      	ldrb	r3, [r3, #0]
 8000fdc:	2b00      	cmp	r3, #0
 8000fde:	d008      	beq.n	8000ff2 <TIM_Cmd+0x92>
 8000fe0:	687b      	ldr	r3, [r7, #4]
 8000fe2:	881b      	ldrh	r3, [r3, #0]
 8000fe4:	b29b      	uxth	r3, r3
 8000fe6:	2201      	movs	r2, #1
 8000fe8:	4313      	orrs	r3, r2
 8000fea:	b29a      	uxth	r2, r3
 8000fec:	687b      	ldr	r3, [r7, #4]
 8000fee:	801a      	strh	r2, [r3, #0]
 8000ff0:	e007      	b.n	8001002 <TIM_Cmd+0xa2>
 8000ff2:	687b      	ldr	r3, [r7, #4]
 8000ff4:	881b      	ldrh	r3, [r3, #0]
 8000ff6:	b29b      	uxth	r3, r3
 8000ff8:	2201      	movs	r2, #1
 8000ffa:	4393      	bics	r3, r2
 8000ffc:	b29a      	uxth	r2, r3
 8000ffe:	687b      	ldr	r3, [r7, #4]
 8001000:	801a      	strh	r2, [r3, #0]
 8001002:	46bd      	mov	sp, r7
 8001004:	b002      	add	sp, #8
 8001006:	bd80      	pop	{r7, pc}
 8001008:	40012c00 	.word	0x40012c00
 800100c:	40000400 	.word	0x40000400
 8001010:	40001000 	.word	0x40001000
 8001014:	40002000 	.word	0x40002000
 8001018:	40014000 	.word	0x40014000
 800101c:	40014400 	.word	0x40014400
 8001020:	40014800 	.word	0x40014800
 8001024:	08003a1c 	.word	0x08003a1c
 8001028:	00000231 	.word	0x00000231
 800102c:	00000232 	.word	0x00000232

08001030 <TIM_CtrlPWMOutputs>:
 8001030:	b580      	push	{r7, lr}
 8001032:	b082      	sub	sp, #8
 8001034:	af00      	add	r7, sp, #0
 8001036:	6078      	str	r0, [r7, #4]
 8001038:	1c0a      	adds	r2, r1, #0
 800103a:	1cfb      	adds	r3, r7, #3
 800103c:	701a      	strb	r2, [r3, #0]
 800103e:	687a      	ldr	r2, [r7, #4]
 8001040:	4b1f      	ldr	r3, [pc, #124]	; (80010c0 <TIM_CtrlPWMOutputs+0x90>)
 8001042:	429a      	cmp	r2, r3
 8001044:	d011      	beq.n	800106a <TIM_CtrlPWMOutputs+0x3a>
 8001046:	687a      	ldr	r2, [r7, #4]
 8001048:	4b1e      	ldr	r3, [pc, #120]	; (80010c4 <TIM_CtrlPWMOutputs+0x94>)
 800104a:	429a      	cmp	r2, r3
 800104c:	d00d      	beq.n	800106a <TIM_CtrlPWMOutputs+0x3a>
 800104e:	687a      	ldr	r2, [r7, #4]
 8001050:	4b1d      	ldr	r3, [pc, #116]	; (80010c8 <TIM_CtrlPWMOutputs+0x98>)
 8001052:	429a      	cmp	r2, r3
 8001054:	d009      	beq.n	800106a <TIM_CtrlPWMOutputs+0x3a>
 8001056:	687a      	ldr	r2, [r7, #4]
 8001058:	4b1c      	ldr	r3, [pc, #112]	; (80010cc <TIM_CtrlPWMOutputs+0x9c>)
 800105a:	429a      	cmp	r2, r3
 800105c:	d005      	beq.n	800106a <TIM_CtrlPWMOutputs+0x3a>
 800105e:	4a1c      	ldr	r2, [pc, #112]	; (80010d0 <TIM_CtrlPWMOutputs+0xa0>)
 8001060:	4b1c      	ldr	r3, [pc, #112]	; (80010d4 <TIM_CtrlPWMOutputs+0xa4>)
 8001062:	1c10      	adds	r0, r2, #0
 8001064:	1c19      	adds	r1, r3, #0
 8001066:	f001 fb47 	bl	80026f8 <assert_failed>
 800106a:	1cfb      	adds	r3, r7, #3
 800106c:	781b      	ldrb	r3, [r3, #0]
 800106e:	2b00      	cmp	r3, #0
 8001070:	d009      	beq.n	8001086 <TIM_CtrlPWMOutputs+0x56>
 8001072:	1cfb      	adds	r3, r7, #3
 8001074:	781b      	ldrb	r3, [r3, #0]
 8001076:	2b01      	cmp	r3, #1
 8001078:	d005      	beq.n	8001086 <TIM_CtrlPWMOutputs+0x56>
 800107a:	4a15      	ldr	r2, [pc, #84]	; (80010d0 <TIM_CtrlPWMOutputs+0xa0>)
 800107c:	4b16      	ldr	r3, [pc, #88]	; (80010d8 <TIM_CtrlPWMOutputs+0xa8>)
 800107e:	1c10      	adds	r0, r2, #0
 8001080:	1c19      	adds	r1, r3, #0
 8001082:	f001 fb39 	bl	80026f8 <assert_failed>
 8001086:	1cfb      	adds	r3, r7, #3
 8001088:	781b      	ldrb	r3, [r3, #0]
 800108a:	2b00      	cmp	r3, #0
 800108c:	d00a      	beq.n	80010a4 <TIM_CtrlPWMOutputs+0x74>
 800108e:	687a      	ldr	r2, [r7, #4]
 8001090:	2344      	movs	r3, #68	; 0x44
 8001092:	5ad3      	ldrh	r3, [r2, r3]
 8001094:	b29b      	uxth	r3, r3
 8001096:	4a11      	ldr	r2, [pc, #68]	; (80010dc <TIM_CtrlPWMOutputs+0xac>)
 8001098:	4313      	orrs	r3, r2
 800109a:	b299      	uxth	r1, r3
 800109c:	687a      	ldr	r2, [r7, #4]
 800109e:	2344      	movs	r3, #68	; 0x44
 80010a0:	52d1      	strh	r1, [r2, r3]
 80010a2:	e009      	b.n	80010b8 <TIM_CtrlPWMOutputs+0x88>
 80010a4:	687a      	ldr	r2, [r7, #4]
 80010a6:	2344      	movs	r3, #68	; 0x44
 80010a8:	5ad3      	ldrh	r3, [r2, r3]
 80010aa:	b29b      	uxth	r3, r3
 80010ac:	045b      	lsls	r3, r3, #17
 80010ae:	0c5b      	lsrs	r3, r3, #17
 80010b0:	b299      	uxth	r1, r3
 80010b2:	687a      	ldr	r2, [r7, #4]
 80010b4:	2344      	movs	r3, #68	; 0x44
 80010b6:	52d1      	strh	r1, [r2, r3]
 80010b8:	46bd      	mov	sp, r7
 80010ba:	b002      	add	sp, #8
 80010bc:	bd80      	pop	{r7, pc}
 80010be:	46c0      	nop			; (mov r8, r8)
 80010c0:	40012c00 	.word	0x40012c00
 80010c4:	40014000 	.word	0x40014000
 80010c8:	40014400 	.word	0x40014400
 80010cc:	40014800 	.word	0x40014800
 80010d0:	08003a1c 	.word	0x08003a1c
 80010d4:	00000296 	.word	0x00000296
 80010d8:	00000297 	.word	0x00000297
 80010dc:	ffff8000 	.word	0xffff8000

080010e0 <TIM_OC1Init>:
 80010e0:	b580      	push	{r7, lr}
 80010e2:	b084      	sub	sp, #16
 80010e4:	af00      	add	r7, sp, #0
 80010e6:	6078      	str	r0, [r7, #4]
 80010e8:	6039      	str	r1, [r7, #0]
 80010ea:	1c3b      	adds	r3, r7, #0
 80010ec:	330a      	adds	r3, #10
 80010ee:	2200      	movs	r2, #0
 80010f0:	801a      	strh	r2, [r3, #0]
 80010f2:	1c3b      	adds	r3, r7, #0
 80010f4:	330e      	adds	r3, #14
 80010f6:	2200      	movs	r2, #0
 80010f8:	801a      	strh	r2, [r3, #0]
 80010fa:	1c3b      	adds	r3, r7, #0
 80010fc:	330c      	adds	r3, #12
 80010fe:	2200      	movs	r2, #0
 8001100:	801a      	strh	r2, [r3, #0]
 8001102:	687a      	ldr	r2, [r7, #4]
 8001104:	4ba7      	ldr	r3, [pc, #668]	; (80013a4 <TIM_OC1Init+0x2c4>)
 8001106:	429a      	cmp	r2, r3
 8001108:	d01f      	beq.n	800114a <TIM_OC1Init+0x6a>
 800110a:	687a      	ldr	r2, [r7, #4]
 800110c:	2380      	movs	r3, #128	; 0x80
 800110e:	05db      	lsls	r3, r3, #23
 8001110:	429a      	cmp	r2, r3
 8001112:	d01a      	beq.n	800114a <TIM_OC1Init+0x6a>
 8001114:	687a      	ldr	r2, [r7, #4]
 8001116:	4ba4      	ldr	r3, [pc, #656]	; (80013a8 <TIM_OC1Init+0x2c8>)
 8001118:	429a      	cmp	r2, r3
 800111a:	d016      	beq.n	800114a <TIM_OC1Init+0x6a>
 800111c:	687a      	ldr	r2, [r7, #4]
 800111e:	4ba3      	ldr	r3, [pc, #652]	; (80013ac <TIM_OC1Init+0x2cc>)
 8001120:	429a      	cmp	r2, r3
 8001122:	d012      	beq.n	800114a <TIM_OC1Init+0x6a>
 8001124:	687a      	ldr	r2, [r7, #4]
 8001126:	4ba2      	ldr	r3, [pc, #648]	; (80013b0 <TIM_OC1Init+0x2d0>)
 8001128:	429a      	cmp	r2, r3
 800112a:	d00e      	beq.n	800114a <TIM_OC1Init+0x6a>
 800112c:	687a      	ldr	r2, [r7, #4]
 800112e:	4ba1      	ldr	r3, [pc, #644]	; (80013b4 <TIM_OC1Init+0x2d4>)
 8001130:	429a      	cmp	r2, r3
 8001132:	d00a      	beq.n	800114a <TIM_OC1Init+0x6a>
 8001134:	687a      	ldr	r2, [r7, #4]
 8001136:	4ba0      	ldr	r3, [pc, #640]	; (80013b8 <TIM_OC1Init+0x2d8>)
 8001138:	429a      	cmp	r2, r3
 800113a:	d006      	beq.n	800114a <TIM_OC1Init+0x6a>
 800113c:	4a9f      	ldr	r2, [pc, #636]	; (80013bc <TIM_OC1Init+0x2dc>)
 800113e:	23b8      	movs	r3, #184	; 0xb8
 8001140:	009b      	lsls	r3, r3, #2
 8001142:	1c10      	adds	r0, r2, #0
 8001144:	1c19      	adds	r1, r3, #0
 8001146:	f001 fad7 	bl	80026f8 <assert_failed>
 800114a:	683b      	ldr	r3, [r7, #0]
 800114c:	881b      	ldrh	r3, [r3, #0]
 800114e:	2b00      	cmp	r3, #0
 8001150:	d019      	beq.n	8001186 <TIM_OC1Init+0xa6>
 8001152:	683b      	ldr	r3, [r7, #0]
 8001154:	881b      	ldrh	r3, [r3, #0]
 8001156:	2b10      	cmp	r3, #16
 8001158:	d015      	beq.n	8001186 <TIM_OC1Init+0xa6>
 800115a:	683b      	ldr	r3, [r7, #0]
 800115c:	881b      	ldrh	r3, [r3, #0]
 800115e:	2b20      	cmp	r3, #32
 8001160:	d011      	beq.n	8001186 <TIM_OC1Init+0xa6>
 8001162:	683b      	ldr	r3, [r7, #0]
 8001164:	881b      	ldrh	r3, [r3, #0]
 8001166:	2b30      	cmp	r3, #48	; 0x30
 8001168:	d00d      	beq.n	8001186 <TIM_OC1Init+0xa6>
 800116a:	683b      	ldr	r3, [r7, #0]
 800116c:	881b      	ldrh	r3, [r3, #0]
 800116e:	2b60      	cmp	r3, #96	; 0x60
 8001170:	d009      	beq.n	8001186 <TIM_OC1Init+0xa6>
 8001172:	683b      	ldr	r3, [r7, #0]
 8001174:	881b      	ldrh	r3, [r3, #0]
 8001176:	2b70      	cmp	r3, #112	; 0x70
 8001178:	d005      	beq.n	8001186 <TIM_OC1Init+0xa6>
 800117a:	4a90      	ldr	r2, [pc, #576]	; (80013bc <TIM_OC1Init+0x2dc>)
 800117c:	4b90      	ldr	r3, [pc, #576]	; (80013c0 <TIM_OC1Init+0x2e0>)
 800117e:	1c10      	adds	r0, r2, #0
 8001180:	1c19      	adds	r1, r3, #0
 8001182:	f001 fab9 	bl	80026f8 <assert_failed>
 8001186:	683b      	ldr	r3, [r7, #0]
 8001188:	885b      	ldrh	r3, [r3, #2]
 800118a:	2b00      	cmp	r3, #0
 800118c:	d009      	beq.n	80011a2 <TIM_OC1Init+0xc2>
 800118e:	683b      	ldr	r3, [r7, #0]
 8001190:	885b      	ldrh	r3, [r3, #2]
 8001192:	2b01      	cmp	r3, #1
 8001194:	d005      	beq.n	80011a2 <TIM_OC1Init+0xc2>
 8001196:	4a89      	ldr	r2, [pc, #548]	; (80013bc <TIM_OC1Init+0x2dc>)
 8001198:	4b8a      	ldr	r3, [pc, #552]	; (80013c4 <TIM_OC1Init+0x2e4>)
 800119a:	1c10      	adds	r0, r2, #0
 800119c:	1c19      	adds	r1, r3, #0
 800119e:	f001 faab 	bl	80026f8 <assert_failed>
 80011a2:	683b      	ldr	r3, [r7, #0]
 80011a4:	899b      	ldrh	r3, [r3, #12]
 80011a6:	2b00      	cmp	r3, #0
 80011a8:	d009      	beq.n	80011be <TIM_OC1Init+0xde>
 80011aa:	683b      	ldr	r3, [r7, #0]
 80011ac:	899b      	ldrh	r3, [r3, #12]
 80011ae:	2b02      	cmp	r3, #2
 80011b0:	d005      	beq.n	80011be <TIM_OC1Init+0xde>
 80011b2:	4a82      	ldr	r2, [pc, #520]	; (80013bc <TIM_OC1Init+0x2dc>)
 80011b4:	4b84      	ldr	r3, [pc, #528]	; (80013c8 <TIM_OC1Init+0x2e8>)
 80011b6:	1c10      	adds	r0, r2, #0
 80011b8:	1c19      	adds	r1, r3, #0
 80011ba:	f001 fa9d 	bl	80026f8 <assert_failed>
 80011be:	687b      	ldr	r3, [r7, #4]
 80011c0:	8c1b      	ldrh	r3, [r3, #32]
 80011c2:	b29b      	uxth	r3, r3
 80011c4:	2201      	movs	r2, #1
 80011c6:	4393      	bics	r3, r2
 80011c8:	b29a      	uxth	r2, r3
 80011ca:	687b      	ldr	r3, [r7, #4]
 80011cc:	841a      	strh	r2, [r3, #32]
 80011ce:	1c3b      	adds	r3, r7, #0
 80011d0:	330e      	adds	r3, #14
 80011d2:	687a      	ldr	r2, [r7, #4]
 80011d4:	8c12      	ldrh	r2, [r2, #32]
 80011d6:	801a      	strh	r2, [r3, #0]
 80011d8:	1c3b      	adds	r3, r7, #0
 80011da:	330c      	adds	r3, #12
 80011dc:	687a      	ldr	r2, [r7, #4]
 80011de:	8892      	ldrh	r2, [r2, #4]
 80011e0:	801a      	strh	r2, [r3, #0]
 80011e2:	1c3b      	adds	r3, r7, #0
 80011e4:	330a      	adds	r3, #10
 80011e6:	687a      	ldr	r2, [r7, #4]
 80011e8:	8b12      	ldrh	r2, [r2, #24]
 80011ea:	801a      	strh	r2, [r3, #0]
 80011ec:	1c3b      	adds	r3, r7, #0
 80011ee:	330a      	adds	r3, #10
 80011f0:	1c3a      	adds	r2, r7, #0
 80011f2:	320a      	adds	r2, #10
 80011f4:	8812      	ldrh	r2, [r2, #0]
 80011f6:	2170      	movs	r1, #112	; 0x70
 80011f8:	438a      	bics	r2, r1
 80011fa:	801a      	strh	r2, [r3, #0]
 80011fc:	1c3b      	adds	r3, r7, #0
 80011fe:	330a      	adds	r3, #10
 8001200:	1c3a      	adds	r2, r7, #0
 8001202:	320a      	adds	r2, #10
 8001204:	8812      	ldrh	r2, [r2, #0]
 8001206:	2103      	movs	r1, #3
 8001208:	438a      	bics	r2, r1
 800120a:	801a      	strh	r2, [r3, #0]
 800120c:	683b      	ldr	r3, [r7, #0]
 800120e:	8819      	ldrh	r1, [r3, #0]
 8001210:	1c3b      	adds	r3, r7, #0
 8001212:	330a      	adds	r3, #10
 8001214:	1c3a      	adds	r2, r7, #0
 8001216:	320a      	adds	r2, #10
 8001218:	8812      	ldrh	r2, [r2, #0]
 800121a:	430a      	orrs	r2, r1
 800121c:	801a      	strh	r2, [r3, #0]
 800121e:	1c3b      	adds	r3, r7, #0
 8001220:	330e      	adds	r3, #14
 8001222:	1c3a      	adds	r2, r7, #0
 8001224:	320e      	adds	r2, #14
 8001226:	8812      	ldrh	r2, [r2, #0]
 8001228:	2102      	movs	r1, #2
 800122a:	438a      	bics	r2, r1
 800122c:	801a      	strh	r2, [r3, #0]
 800122e:	683b      	ldr	r3, [r7, #0]
 8001230:	8999      	ldrh	r1, [r3, #12]
 8001232:	1c3b      	adds	r3, r7, #0
 8001234:	330e      	adds	r3, #14
 8001236:	1c3a      	adds	r2, r7, #0
 8001238:	320e      	adds	r2, #14
 800123a:	8812      	ldrh	r2, [r2, #0]
 800123c:	430a      	orrs	r2, r1
 800123e:	801a      	strh	r2, [r3, #0]
 8001240:	683b      	ldr	r3, [r7, #0]
 8001242:	8859      	ldrh	r1, [r3, #2]
 8001244:	1c3b      	adds	r3, r7, #0
 8001246:	330e      	adds	r3, #14
 8001248:	1c3a      	adds	r2, r7, #0
 800124a:	320e      	adds	r2, #14
 800124c:	8812      	ldrh	r2, [r2, #0]
 800124e:	430a      	orrs	r2, r1
 8001250:	801a      	strh	r2, [r3, #0]
 8001252:	687a      	ldr	r2, [r7, #4]
 8001254:	4b53      	ldr	r3, [pc, #332]	; (80013a4 <TIM_OC1Init+0x2c4>)
 8001256:	429a      	cmp	r2, r3
 8001258:	d00c      	beq.n	8001274 <TIM_OC1Init+0x194>
 800125a:	687a      	ldr	r2, [r7, #4]
 800125c:	4b54      	ldr	r3, [pc, #336]	; (80013b0 <TIM_OC1Init+0x2d0>)
 800125e:	429a      	cmp	r2, r3
 8001260:	d008      	beq.n	8001274 <TIM_OC1Init+0x194>
 8001262:	687a      	ldr	r2, [r7, #4]
 8001264:	4b53      	ldr	r3, [pc, #332]	; (80013b4 <TIM_OC1Init+0x2d4>)
 8001266:	429a      	cmp	r2, r3
 8001268:	d004      	beq.n	8001274 <TIM_OC1Init+0x194>
 800126a:	687a      	ldr	r2, [r7, #4]
 800126c:	4b52      	ldr	r3, [pc, #328]	; (80013b8 <TIM_OC1Init+0x2d8>)
 800126e:	429a      	cmp	r2, r3
 8001270:	d000      	beq.n	8001274 <TIM_OC1Init+0x194>
 8001272:	e080      	b.n	8001376 <TIM_OC1Init+0x296>
 8001274:	683b      	ldr	r3, [r7, #0]
 8001276:	889b      	ldrh	r3, [r3, #4]
 8001278:	2b00      	cmp	r3, #0
 800127a:	d009      	beq.n	8001290 <TIM_OC1Init+0x1b0>
 800127c:	683b      	ldr	r3, [r7, #0]
 800127e:	889b      	ldrh	r3, [r3, #4]
 8001280:	2b04      	cmp	r3, #4
 8001282:	d005      	beq.n	8001290 <TIM_OC1Init+0x1b0>
 8001284:	4a4d      	ldr	r2, [pc, #308]	; (80013bc <TIM_OC1Init+0x2dc>)
 8001286:	4b51      	ldr	r3, [pc, #324]	; (80013cc <TIM_OC1Init+0x2ec>)
 8001288:	1c10      	adds	r0, r2, #0
 800128a:	1c19      	adds	r1, r3, #0
 800128c:	f001 fa34 	bl	80026f8 <assert_failed>
 8001290:	683b      	ldr	r3, [r7, #0]
 8001292:	89db      	ldrh	r3, [r3, #14]
 8001294:	2b00      	cmp	r3, #0
 8001296:	d00a      	beq.n	80012ae <TIM_OC1Init+0x1ce>
 8001298:	683b      	ldr	r3, [r7, #0]
 800129a:	89db      	ldrh	r3, [r3, #14]
 800129c:	2b08      	cmp	r3, #8
 800129e:	d006      	beq.n	80012ae <TIM_OC1Init+0x1ce>
 80012a0:	4a46      	ldr	r2, [pc, #280]	; (80013bc <TIM_OC1Init+0x2dc>)
 80012a2:	23c0      	movs	r3, #192	; 0xc0
 80012a4:	009b      	lsls	r3, r3, #2
 80012a6:	1c10      	adds	r0, r2, #0
 80012a8:	1c19      	adds	r1, r3, #0
 80012aa:	f001 fa25 	bl	80026f8 <assert_failed>
 80012ae:	683b      	ldr	r3, [r7, #0]
 80012b0:	8a5a      	ldrh	r2, [r3, #18]
 80012b2:	2380      	movs	r3, #128	; 0x80
 80012b4:	009b      	lsls	r3, r3, #2
 80012b6:	429a      	cmp	r2, r3
 80012b8:	d009      	beq.n	80012ce <TIM_OC1Init+0x1ee>
 80012ba:	683b      	ldr	r3, [r7, #0]
 80012bc:	8a5b      	ldrh	r3, [r3, #18]
 80012be:	2b00      	cmp	r3, #0
 80012c0:	d005      	beq.n	80012ce <TIM_OC1Init+0x1ee>
 80012c2:	4a3e      	ldr	r2, [pc, #248]	; (80013bc <TIM_OC1Init+0x2dc>)
 80012c4:	4b42      	ldr	r3, [pc, #264]	; (80013d0 <TIM_OC1Init+0x2f0>)
 80012c6:	1c10      	adds	r0, r2, #0
 80012c8:	1c19      	adds	r1, r3, #0
 80012ca:	f001 fa15 	bl	80026f8 <assert_failed>
 80012ce:	683b      	ldr	r3, [r7, #0]
 80012d0:	8a1a      	ldrh	r2, [r3, #16]
 80012d2:	2380      	movs	r3, #128	; 0x80
 80012d4:	005b      	lsls	r3, r3, #1
 80012d6:	429a      	cmp	r2, r3
 80012d8:	d009      	beq.n	80012ee <TIM_OC1Init+0x20e>
 80012da:	683b      	ldr	r3, [r7, #0]
 80012dc:	8a1b      	ldrh	r3, [r3, #16]
 80012de:	2b00      	cmp	r3, #0
 80012e0:	d005      	beq.n	80012ee <TIM_OC1Init+0x20e>
 80012e2:	4a36      	ldr	r2, [pc, #216]	; (80013bc <TIM_OC1Init+0x2dc>)
 80012e4:	4b3b      	ldr	r3, [pc, #236]	; (80013d4 <TIM_OC1Init+0x2f4>)
 80012e6:	1c10      	adds	r0, r2, #0
 80012e8:	1c19      	adds	r1, r3, #0
 80012ea:	f001 fa05 	bl	80026f8 <assert_failed>
 80012ee:	1c3b      	adds	r3, r7, #0
 80012f0:	330e      	adds	r3, #14
 80012f2:	1c3a      	adds	r2, r7, #0
 80012f4:	320e      	adds	r2, #14
 80012f6:	8812      	ldrh	r2, [r2, #0]
 80012f8:	2108      	movs	r1, #8
 80012fa:	438a      	bics	r2, r1
 80012fc:	801a      	strh	r2, [r3, #0]
 80012fe:	683b      	ldr	r3, [r7, #0]
 8001300:	89d9      	ldrh	r1, [r3, #14]
 8001302:	1c3b      	adds	r3, r7, #0
 8001304:	330e      	adds	r3, #14
 8001306:	1c3a      	adds	r2, r7, #0
 8001308:	320e      	adds	r2, #14
 800130a:	8812      	ldrh	r2, [r2, #0]
 800130c:	430a      	orrs	r2, r1
 800130e:	801a      	strh	r2, [r3, #0]
 8001310:	1c3b      	adds	r3, r7, #0
 8001312:	330e      	adds	r3, #14
 8001314:	1c3a      	adds	r2, r7, #0
 8001316:	320e      	adds	r2, #14
 8001318:	8812      	ldrh	r2, [r2, #0]
 800131a:	2104      	movs	r1, #4
 800131c:	438a      	bics	r2, r1
 800131e:	801a      	strh	r2, [r3, #0]
 8001320:	683b      	ldr	r3, [r7, #0]
 8001322:	8899      	ldrh	r1, [r3, #4]
 8001324:	1c3b      	adds	r3, r7, #0
 8001326:	330e      	adds	r3, #14
 8001328:	1c3a      	adds	r2, r7, #0
 800132a:	320e      	adds	r2, #14
 800132c:	8812      	ldrh	r2, [r2, #0]
 800132e:	430a      	orrs	r2, r1
 8001330:	801a      	strh	r2, [r3, #0]
 8001332:	1c3b      	adds	r3, r7, #0
 8001334:	330c      	adds	r3, #12
 8001336:	1c3a      	adds	r2, r7, #0
 8001338:	320c      	adds	r2, #12
 800133a:	8811      	ldrh	r1, [r2, #0]
 800133c:	4a26      	ldr	r2, [pc, #152]	; (80013d8 <TIM_OC1Init+0x2f8>)
 800133e:	400a      	ands	r2, r1
 8001340:	801a      	strh	r2, [r3, #0]
 8001342:	1c3b      	adds	r3, r7, #0
 8001344:	330c      	adds	r3, #12
 8001346:	1c3a      	adds	r2, r7, #0
 8001348:	320c      	adds	r2, #12
 800134a:	8811      	ldrh	r1, [r2, #0]
 800134c:	4a23      	ldr	r2, [pc, #140]	; (80013dc <TIM_OC1Init+0x2fc>)
 800134e:	400a      	ands	r2, r1
 8001350:	801a      	strh	r2, [r3, #0]
 8001352:	683b      	ldr	r3, [r7, #0]
 8001354:	8a19      	ldrh	r1, [r3, #16]
 8001356:	1c3b      	adds	r3, r7, #0
 8001358:	330c      	adds	r3, #12
 800135a:	1c3a      	adds	r2, r7, #0
 800135c:	320c      	adds	r2, #12
 800135e:	8812      	ldrh	r2, [r2, #0]
 8001360:	430a      	orrs	r2, r1
 8001362:	801a      	strh	r2, [r3, #0]
 8001364:	683b      	ldr	r3, [r7, #0]
 8001366:	8a59      	ldrh	r1, [r3, #18]
 8001368:	1c3b      	adds	r3, r7, #0
 800136a:	330c      	adds	r3, #12
 800136c:	1c3a      	adds	r2, r7, #0
 800136e:	320c      	adds	r2, #12
 8001370:	8812      	ldrh	r2, [r2, #0]
 8001372:	430a      	orrs	r2, r1
 8001374:	801a      	strh	r2, [r3, #0]
 8001376:	687b      	ldr	r3, [r7, #4]
 8001378:	1c3a      	adds	r2, r7, #0
 800137a:	320c      	adds	r2, #12
 800137c:	8812      	ldrh	r2, [r2, #0]
 800137e:	809a      	strh	r2, [r3, #4]
 8001380:	687b      	ldr	r3, [r7, #4]
 8001382:	1c3a      	adds	r2, r7, #0
 8001384:	320a      	adds	r2, #10
 8001386:	8812      	ldrh	r2, [r2, #0]
 8001388:	831a      	strh	r2, [r3, #24]
 800138a:	683b      	ldr	r3, [r7, #0]
 800138c:	689a      	ldr	r2, [r3, #8]
 800138e:	687b      	ldr	r3, [r7, #4]
 8001390:	635a      	str	r2, [r3, #52]	; 0x34
 8001392:	687b      	ldr	r3, [r7, #4]
 8001394:	1c3a      	adds	r2, r7, #0
 8001396:	320e      	adds	r2, #14
 8001398:	8812      	ldrh	r2, [r2, #0]
 800139a:	841a      	strh	r2, [r3, #32]
 800139c:	46bd      	mov	sp, r7
 800139e:	b004      	add	sp, #16
 80013a0:	bd80      	pop	{r7, pc}
 80013a2:	46c0      	nop			; (mov r8, r8)
 80013a4:	40012c00 	.word	0x40012c00
 80013a8:	40000400 	.word	0x40000400
 80013ac:	40002000 	.word	0x40002000
 80013b0:	40014000 	.word	0x40014000
 80013b4:	40014400 	.word	0x40014400
 80013b8:	40014800 	.word	0x40014800
 80013bc:	08003a1c 	.word	0x08003a1c
 80013c0:	000002e1 	.word	0x000002e1
 80013c4:	000002e2 	.word	0x000002e2
 80013c8:	000002e3 	.word	0x000002e3
 80013cc:	000002ff 	.word	0x000002ff
 80013d0:	00000301 	.word	0x00000301
 80013d4:	00000302 	.word	0x00000302
 80013d8:	fffffeff 	.word	0xfffffeff
 80013dc:	fffffdff 	.word	0xfffffdff

080013e0 <TIM_OC2Init>:
 80013e0:	b580      	push	{r7, lr}
 80013e2:	b084      	sub	sp, #16
 80013e4:	af00      	add	r7, sp, #0
 80013e6:	6078      	str	r0, [r7, #4]
 80013e8:	6039      	str	r1, [r7, #0]
 80013ea:	1c3b      	adds	r3, r7, #0
 80013ec:	330a      	adds	r3, #10
 80013ee:	2200      	movs	r2, #0
 80013f0:	801a      	strh	r2, [r3, #0]
 80013f2:	1c3b      	adds	r3, r7, #0
 80013f4:	330e      	adds	r3, #14
 80013f6:	2200      	movs	r2, #0
 80013f8:	801a      	strh	r2, [r3, #0]
 80013fa:	1c3b      	adds	r3, r7, #0
 80013fc:	330c      	adds	r3, #12
 80013fe:	2200      	movs	r2, #0
 8001400:	801a      	strh	r2, [r3, #0]
 8001402:	687a      	ldr	r2, [r7, #4]
 8001404:	4ba2      	ldr	r3, [pc, #648]	; (8001690 <TIM_OC2Init+0x2b0>)
 8001406:	429a      	cmp	r2, r3
 8001408:	d012      	beq.n	8001430 <TIM_OC2Init+0x50>
 800140a:	687a      	ldr	r2, [r7, #4]
 800140c:	2380      	movs	r3, #128	; 0x80
 800140e:	05db      	lsls	r3, r3, #23
 8001410:	429a      	cmp	r2, r3
 8001412:	d00d      	beq.n	8001430 <TIM_OC2Init+0x50>
 8001414:	687a      	ldr	r2, [r7, #4]
 8001416:	4b9f      	ldr	r3, [pc, #636]	; (8001694 <TIM_OC2Init+0x2b4>)
 8001418:	429a      	cmp	r2, r3
 800141a:	d009      	beq.n	8001430 <TIM_OC2Init+0x50>
 800141c:	687a      	ldr	r2, [r7, #4]
 800141e:	4b9e      	ldr	r3, [pc, #632]	; (8001698 <TIM_OC2Init+0x2b8>)
 8001420:	429a      	cmp	r2, r3
 8001422:	d005      	beq.n	8001430 <TIM_OC2Init+0x50>
 8001424:	4a9d      	ldr	r2, [pc, #628]	; (800169c <TIM_OC2Init+0x2bc>)
 8001426:	4b9e      	ldr	r3, [pc, #632]	; (80016a0 <TIM_OC2Init+0x2c0>)
 8001428:	1c10      	adds	r0, r2, #0
 800142a:	1c19      	adds	r1, r3, #0
 800142c:	f001 f964 	bl	80026f8 <assert_failed>
 8001430:	683b      	ldr	r3, [r7, #0]
 8001432:	881b      	ldrh	r3, [r3, #0]
 8001434:	2b00      	cmp	r3, #0
 8001436:	d019      	beq.n	800146c <TIM_OC2Init+0x8c>
 8001438:	683b      	ldr	r3, [r7, #0]
 800143a:	881b      	ldrh	r3, [r3, #0]
 800143c:	2b10      	cmp	r3, #16
 800143e:	d015      	beq.n	800146c <TIM_OC2Init+0x8c>
 8001440:	683b      	ldr	r3, [r7, #0]
 8001442:	881b      	ldrh	r3, [r3, #0]
 8001444:	2b20      	cmp	r3, #32
 8001446:	d011      	beq.n	800146c <TIM_OC2Init+0x8c>
 8001448:	683b      	ldr	r3, [r7, #0]
 800144a:	881b      	ldrh	r3, [r3, #0]
 800144c:	2b30      	cmp	r3, #48	; 0x30
 800144e:	d00d      	beq.n	800146c <TIM_OC2Init+0x8c>
 8001450:	683b      	ldr	r3, [r7, #0]
 8001452:	881b      	ldrh	r3, [r3, #0]
 8001454:	2b60      	cmp	r3, #96	; 0x60
 8001456:	d009      	beq.n	800146c <TIM_OC2Init+0x8c>
 8001458:	683b      	ldr	r3, [r7, #0]
 800145a:	881b      	ldrh	r3, [r3, #0]
 800145c:	2b70      	cmp	r3, #112	; 0x70
 800145e:	d005      	beq.n	800146c <TIM_OC2Init+0x8c>
 8001460:	4a8e      	ldr	r2, [pc, #568]	; (800169c <TIM_OC2Init+0x2bc>)
 8001462:	4b90      	ldr	r3, [pc, #576]	; (80016a4 <TIM_OC2Init+0x2c4>)
 8001464:	1c10      	adds	r0, r2, #0
 8001466:	1c19      	adds	r1, r3, #0
 8001468:	f001 f946 	bl	80026f8 <assert_failed>
 800146c:	683b      	ldr	r3, [r7, #0]
 800146e:	885b      	ldrh	r3, [r3, #2]
 8001470:	2b00      	cmp	r3, #0
 8001472:	d00a      	beq.n	800148a <TIM_OC2Init+0xaa>
 8001474:	683b      	ldr	r3, [r7, #0]
 8001476:	885b      	ldrh	r3, [r3, #2]
 8001478:	2b01      	cmp	r3, #1
 800147a:	d006      	beq.n	800148a <TIM_OC2Init+0xaa>
 800147c:	4a87      	ldr	r2, [pc, #540]	; (800169c <TIM_OC2Init+0x2bc>)
 800147e:	23cd      	movs	r3, #205	; 0xcd
 8001480:	009b      	lsls	r3, r3, #2
 8001482:	1c10      	adds	r0, r2, #0
 8001484:	1c19      	adds	r1, r3, #0
 8001486:	f001 f937 	bl	80026f8 <assert_failed>
 800148a:	683b      	ldr	r3, [r7, #0]
 800148c:	899b      	ldrh	r3, [r3, #12]
 800148e:	2b00      	cmp	r3, #0
 8001490:	d009      	beq.n	80014a6 <TIM_OC2Init+0xc6>
 8001492:	683b      	ldr	r3, [r7, #0]
 8001494:	899b      	ldrh	r3, [r3, #12]
 8001496:	2b02      	cmp	r3, #2
 8001498:	d005      	beq.n	80014a6 <TIM_OC2Init+0xc6>
 800149a:	4a80      	ldr	r2, [pc, #512]	; (800169c <TIM_OC2Init+0x2bc>)
 800149c:	4b82      	ldr	r3, [pc, #520]	; (80016a8 <TIM_OC2Init+0x2c8>)
 800149e:	1c10      	adds	r0, r2, #0
 80014a0:	1c19      	adds	r1, r3, #0
 80014a2:	f001 f929 	bl	80026f8 <assert_failed>
 80014a6:	687b      	ldr	r3, [r7, #4]
 80014a8:	8c1b      	ldrh	r3, [r3, #32]
 80014aa:	b29b      	uxth	r3, r3
 80014ac:	2210      	movs	r2, #16
 80014ae:	4393      	bics	r3, r2
 80014b0:	b29a      	uxth	r2, r3
 80014b2:	687b      	ldr	r3, [r7, #4]
 80014b4:	841a      	strh	r2, [r3, #32]
 80014b6:	1c3b      	adds	r3, r7, #0
 80014b8:	330e      	adds	r3, #14
 80014ba:	687a      	ldr	r2, [r7, #4]
 80014bc:	8c12      	ldrh	r2, [r2, #32]
 80014be:	801a      	strh	r2, [r3, #0]
 80014c0:	1c3b      	adds	r3, r7, #0
 80014c2:	330c      	adds	r3, #12
 80014c4:	687a      	ldr	r2, [r7, #4]
 80014c6:	8892      	ldrh	r2, [r2, #4]
 80014c8:	801a      	strh	r2, [r3, #0]
 80014ca:	1c3b      	adds	r3, r7, #0
 80014cc:	330a      	adds	r3, #10
 80014ce:	687a      	ldr	r2, [r7, #4]
 80014d0:	8b12      	ldrh	r2, [r2, #24]
 80014d2:	801a      	strh	r2, [r3, #0]
 80014d4:	1c3b      	adds	r3, r7, #0
 80014d6:	330a      	adds	r3, #10
 80014d8:	1c3a      	adds	r2, r7, #0
 80014da:	320a      	adds	r2, #10
 80014dc:	8811      	ldrh	r1, [r2, #0]
 80014de:	4a73      	ldr	r2, [pc, #460]	; (80016ac <TIM_OC2Init+0x2cc>)
 80014e0:	400a      	ands	r2, r1
 80014e2:	801a      	strh	r2, [r3, #0]
 80014e4:	1c3b      	adds	r3, r7, #0
 80014e6:	330a      	adds	r3, #10
 80014e8:	1c3a      	adds	r2, r7, #0
 80014ea:	320a      	adds	r2, #10
 80014ec:	8811      	ldrh	r1, [r2, #0]
 80014ee:	4a70      	ldr	r2, [pc, #448]	; (80016b0 <TIM_OC2Init+0x2d0>)
 80014f0:	400a      	ands	r2, r1
 80014f2:	801a      	strh	r2, [r3, #0]
 80014f4:	683b      	ldr	r3, [r7, #0]
 80014f6:	881b      	ldrh	r3, [r3, #0]
 80014f8:	021b      	lsls	r3, r3, #8
 80014fa:	b299      	uxth	r1, r3
 80014fc:	1c3b      	adds	r3, r7, #0
 80014fe:	330a      	adds	r3, #10
 8001500:	1c3a      	adds	r2, r7, #0
 8001502:	320a      	adds	r2, #10
 8001504:	8812      	ldrh	r2, [r2, #0]
 8001506:	430a      	orrs	r2, r1
 8001508:	801a      	strh	r2, [r3, #0]
 800150a:	1c3b      	adds	r3, r7, #0
 800150c:	330e      	adds	r3, #14
 800150e:	1c3a      	adds	r2, r7, #0
 8001510:	320e      	adds	r2, #14
 8001512:	8812      	ldrh	r2, [r2, #0]
 8001514:	2120      	movs	r1, #32
 8001516:	438a      	bics	r2, r1
 8001518:	801a      	strh	r2, [r3, #0]
 800151a:	683b      	ldr	r3, [r7, #0]
 800151c:	899b      	ldrh	r3, [r3, #12]
 800151e:	011b      	lsls	r3, r3, #4
 8001520:	b299      	uxth	r1, r3
 8001522:	1c3b      	adds	r3, r7, #0
 8001524:	330e      	adds	r3, #14
 8001526:	1c3a      	adds	r2, r7, #0
 8001528:	320e      	adds	r2, #14
 800152a:	8812      	ldrh	r2, [r2, #0]
 800152c:	430a      	orrs	r2, r1
 800152e:	801a      	strh	r2, [r3, #0]
 8001530:	683b      	ldr	r3, [r7, #0]
 8001532:	885b      	ldrh	r3, [r3, #2]
 8001534:	011b      	lsls	r3, r3, #4
 8001536:	b299      	uxth	r1, r3
 8001538:	1c3b      	adds	r3, r7, #0
 800153a:	330e      	adds	r3, #14
 800153c:	1c3a      	adds	r2, r7, #0
 800153e:	320e      	adds	r2, #14
 8001540:	8812      	ldrh	r2, [r2, #0]
 8001542:	430a      	orrs	r2, r1
 8001544:	801a      	strh	r2, [r3, #0]
 8001546:	687a      	ldr	r2, [r7, #4]
 8001548:	4b51      	ldr	r3, [pc, #324]	; (8001690 <TIM_OC2Init+0x2b0>)
 800154a:	429a      	cmp	r2, r3
 800154c:	d000      	beq.n	8001550 <TIM_OC2Init+0x170>
 800154e:	e088      	b.n	8001662 <TIM_OC2Init+0x282>
 8001550:	683b      	ldr	r3, [r7, #0]
 8001552:	889b      	ldrh	r3, [r3, #4]
 8001554:	2b00      	cmp	r3, #0
 8001556:	d009      	beq.n	800156c <TIM_OC2Init+0x18c>
 8001558:	683b      	ldr	r3, [r7, #0]
 800155a:	889b      	ldrh	r3, [r3, #4]
 800155c:	2b04      	cmp	r3, #4
 800155e:	d005      	beq.n	800156c <TIM_OC2Init+0x18c>
 8001560:	4a4e      	ldr	r2, [pc, #312]	; (800169c <TIM_OC2Init+0x2bc>)
 8001562:	4b54      	ldr	r3, [pc, #336]	; (80016b4 <TIM_OC2Init+0x2d4>)
 8001564:	1c10      	adds	r0, r2, #0
 8001566:	1c19      	adds	r1, r3, #0
 8001568:	f001 f8c6 	bl	80026f8 <assert_failed>
 800156c:	683b      	ldr	r3, [r7, #0]
 800156e:	89db      	ldrh	r3, [r3, #14]
 8001570:	2b00      	cmp	r3, #0
 8001572:	d009      	beq.n	8001588 <TIM_OC2Init+0x1a8>
 8001574:	683b      	ldr	r3, [r7, #0]
 8001576:	89db      	ldrh	r3, [r3, #14]
 8001578:	2b08      	cmp	r3, #8
 800157a:	d005      	beq.n	8001588 <TIM_OC2Init+0x1a8>
 800157c:	4a47      	ldr	r2, [pc, #284]	; (800169c <TIM_OC2Init+0x2bc>)
 800157e:	4b4e      	ldr	r3, [pc, #312]	; (80016b8 <TIM_OC2Init+0x2d8>)
 8001580:	1c10      	adds	r0, r2, #0
 8001582:	1c19      	adds	r1, r3, #0
 8001584:	f001 f8b8 	bl	80026f8 <assert_failed>
 8001588:	683b      	ldr	r3, [r7, #0]
 800158a:	8a5a      	ldrh	r2, [r3, #18]
 800158c:	2380      	movs	r3, #128	; 0x80
 800158e:	009b      	lsls	r3, r3, #2
 8001590:	429a      	cmp	r2, r3
 8001592:	d00a      	beq.n	80015aa <TIM_OC2Init+0x1ca>
 8001594:	683b      	ldr	r3, [r7, #0]
 8001596:	8a5b      	ldrh	r3, [r3, #18]
 8001598:	2b00      	cmp	r3, #0
 800159a:	d006      	beq.n	80015aa <TIM_OC2Init+0x1ca>
 800159c:	4a3f      	ldr	r2, [pc, #252]	; (800169c <TIM_OC2Init+0x2bc>)
 800159e:	23d5      	movs	r3, #213	; 0xd5
 80015a0:	009b      	lsls	r3, r3, #2
 80015a2:	1c10      	adds	r0, r2, #0
 80015a4:	1c19      	adds	r1, r3, #0
 80015a6:	f001 f8a7 	bl	80026f8 <assert_failed>
 80015aa:	683b      	ldr	r3, [r7, #0]
 80015ac:	8a1a      	ldrh	r2, [r3, #16]
 80015ae:	2380      	movs	r3, #128	; 0x80
 80015b0:	005b      	lsls	r3, r3, #1
 80015b2:	429a      	cmp	r2, r3
 80015b4:	d009      	beq.n	80015ca <TIM_OC2Init+0x1ea>
 80015b6:	683b      	ldr	r3, [r7, #0]
 80015b8:	8a1b      	ldrh	r3, [r3, #16]
 80015ba:	2b00      	cmp	r3, #0
 80015bc:	d005      	beq.n	80015ca <TIM_OC2Init+0x1ea>
 80015be:	4a37      	ldr	r2, [pc, #220]	; (800169c <TIM_OC2Init+0x2bc>)
 80015c0:	4b3e      	ldr	r3, [pc, #248]	; (80016bc <TIM_OC2Init+0x2dc>)
 80015c2:	1c10      	adds	r0, r2, #0
 80015c4:	1c19      	adds	r1, r3, #0
 80015c6:	f001 f897 	bl	80026f8 <assert_failed>
 80015ca:	1c3b      	adds	r3, r7, #0
 80015cc:	330e      	adds	r3, #14
 80015ce:	1c3a      	adds	r2, r7, #0
 80015d0:	320e      	adds	r2, #14
 80015d2:	8812      	ldrh	r2, [r2, #0]
 80015d4:	2180      	movs	r1, #128	; 0x80
 80015d6:	438a      	bics	r2, r1
 80015d8:	801a      	strh	r2, [r3, #0]
 80015da:	683b      	ldr	r3, [r7, #0]
 80015dc:	89db      	ldrh	r3, [r3, #14]
 80015de:	011b      	lsls	r3, r3, #4
 80015e0:	b299      	uxth	r1, r3
 80015e2:	1c3b      	adds	r3, r7, #0
 80015e4:	330e      	adds	r3, #14
 80015e6:	1c3a      	adds	r2, r7, #0
 80015e8:	320e      	adds	r2, #14
 80015ea:	8812      	ldrh	r2, [r2, #0]
 80015ec:	430a      	orrs	r2, r1
 80015ee:	801a      	strh	r2, [r3, #0]
 80015f0:	1c3b      	adds	r3, r7, #0
 80015f2:	330e      	adds	r3, #14
 80015f4:	1c3a      	adds	r2, r7, #0
 80015f6:	320e      	adds	r2, #14
 80015f8:	8812      	ldrh	r2, [r2, #0]
 80015fa:	2140      	movs	r1, #64	; 0x40
 80015fc:	438a      	bics	r2, r1
 80015fe:	801a      	strh	r2, [r3, #0]
 8001600:	683b      	ldr	r3, [r7, #0]
 8001602:	889b      	ldrh	r3, [r3, #4]
 8001604:	011b      	lsls	r3, r3, #4
 8001606:	b299      	uxth	r1, r3
 8001608:	1c3b      	adds	r3, r7, #0
 800160a:	330e      	adds	r3, #14
 800160c:	1c3a      	adds	r2, r7, #0
 800160e:	320e      	adds	r2, #14
 8001610:	8812      	ldrh	r2, [r2, #0]
 8001612:	430a      	orrs	r2, r1
 8001614:	801a      	strh	r2, [r3, #0]
 8001616:	1c3b      	adds	r3, r7, #0
 8001618:	330c      	adds	r3, #12
 800161a:	1c3a      	adds	r2, r7, #0
 800161c:	320c      	adds	r2, #12
 800161e:	8811      	ldrh	r1, [r2, #0]
 8001620:	4a27      	ldr	r2, [pc, #156]	; (80016c0 <TIM_OC2Init+0x2e0>)
 8001622:	400a      	ands	r2, r1
 8001624:	801a      	strh	r2, [r3, #0]
 8001626:	1c3b      	adds	r3, r7, #0
 8001628:	330c      	adds	r3, #12
 800162a:	1c3a      	adds	r2, r7, #0
 800162c:	320c      	adds	r2, #12
 800162e:	8811      	ldrh	r1, [r2, #0]
 8001630:	4a24      	ldr	r2, [pc, #144]	; (80016c4 <TIM_OC2Init+0x2e4>)
 8001632:	400a      	ands	r2, r1
 8001634:	801a      	strh	r2, [r3, #0]
 8001636:	683b      	ldr	r3, [r7, #0]
 8001638:	8a1b      	ldrh	r3, [r3, #16]
 800163a:	009b      	lsls	r3, r3, #2
 800163c:	b299      	uxth	r1, r3
 800163e:	1c3b      	adds	r3, r7, #0
 8001640:	330c      	adds	r3, #12
 8001642:	1c3a      	adds	r2, r7, #0
 8001644:	320c      	adds	r2, #12
 8001646:	8812      	ldrh	r2, [r2, #0]
 8001648:	430a      	orrs	r2, r1
 800164a:	801a      	strh	r2, [r3, #0]
 800164c:	683b      	ldr	r3, [r7, #0]
 800164e:	8a5b      	ldrh	r3, [r3, #18]
 8001650:	009b      	lsls	r3, r3, #2
 8001652:	b299      	uxth	r1, r3
 8001654:	1c3b      	adds	r3, r7, #0
 8001656:	330c      	adds	r3, #12
 8001658:	1c3a      	adds	r2, r7, #0
 800165a:	320c      	adds	r2, #12
 800165c:	8812      	ldrh	r2, [r2, #0]
 800165e:	430a      	orrs	r2, r1
 8001660:	801a      	strh	r2, [r3, #0]
 8001662:	687b      	ldr	r3, [r7, #4]
 8001664:	1c3a      	adds	r2, r7, #0
 8001666:	320c      	adds	r2, #12
 8001668:	8812      	ldrh	r2, [r2, #0]
 800166a:	809a      	strh	r2, [r3, #4]
 800166c:	687b      	ldr	r3, [r7, #4]
 800166e:	1c3a      	adds	r2, r7, #0
 8001670:	320a      	adds	r2, #10
 8001672:	8812      	ldrh	r2, [r2, #0]
 8001674:	831a      	strh	r2, [r3, #24]
 8001676:	683b      	ldr	r3, [r7, #0]
 8001678:	689a      	ldr	r2, [r3, #8]
 800167a:	687b      	ldr	r3, [r7, #4]
 800167c:	639a      	str	r2, [r3, #56]	; 0x38
 800167e:	687b      	ldr	r3, [r7, #4]
 8001680:	1c3a      	adds	r2, r7, #0
 8001682:	320e      	adds	r2, #14
 8001684:	8812      	ldrh	r2, [r2, #0]
 8001686:	841a      	strh	r2, [r3, #32]
 8001688:	46bd      	mov	sp, r7
 800168a:	b004      	add	sp, #16
 800168c:	bd80      	pop	{r7, pc}
 800168e:	46c0      	nop			; (mov r8, r8)
 8001690:	40012c00 	.word	0x40012c00
 8001694:	40000400 	.word	0x40000400
 8001698:	40014000 	.word	0x40014000
 800169c:	08003a1c 	.word	0x08003a1c
 80016a0:	00000332 	.word	0x00000332
 80016a4:	00000333 	.word	0x00000333
 80016a8:	00000335 	.word	0x00000335
 80016ac:	ffff8fff 	.word	0xffff8fff
 80016b0:	fffffcff 	.word	0xfffffcff
 80016b4:	00000352 	.word	0x00000352
 80016b8:	00000353 	.word	0x00000353
 80016bc:	00000355 	.word	0x00000355
 80016c0:	fffffbff 	.word	0xfffffbff
 80016c4:	fffff7ff 	.word	0xfffff7ff

080016c8 <TIM_OC3Init>:
 80016c8:	b580      	push	{r7, lr}
 80016ca:	b084      	sub	sp, #16
 80016cc:	af00      	add	r7, sp, #0
 80016ce:	6078      	str	r0, [r7, #4]
 80016d0:	6039      	str	r1, [r7, #0]
 80016d2:	1c3b      	adds	r3, r7, #0
 80016d4:	330a      	adds	r3, #10
 80016d6:	2200      	movs	r2, #0
 80016d8:	801a      	strh	r2, [r3, #0]
 80016da:	1c3b      	adds	r3, r7, #0
 80016dc:	330e      	adds	r3, #14
 80016de:	2200      	movs	r2, #0
 80016e0:	801a      	strh	r2, [r3, #0]
 80016e2:	1c3b      	adds	r3, r7, #0
 80016e4:	330c      	adds	r3, #12
 80016e6:	2200      	movs	r2, #0
 80016e8:	801a      	strh	r2, [r3, #0]
 80016ea:	687a      	ldr	r2, [r7, #4]
 80016ec:	4b9f      	ldr	r3, [pc, #636]	; (800196c <TIM_OC3Init+0x2a4>)
 80016ee:	429a      	cmp	r2, r3
 80016f0:	d00e      	beq.n	8001710 <TIM_OC3Init+0x48>
 80016f2:	687a      	ldr	r2, [r7, #4]
 80016f4:	2380      	movs	r3, #128	; 0x80
 80016f6:	05db      	lsls	r3, r3, #23
 80016f8:	429a      	cmp	r2, r3
 80016fa:	d009      	beq.n	8001710 <TIM_OC3Init+0x48>
 80016fc:	687a      	ldr	r2, [r7, #4]
 80016fe:	4b9c      	ldr	r3, [pc, #624]	; (8001970 <TIM_OC3Init+0x2a8>)
 8001700:	429a      	cmp	r2, r3
 8001702:	d005      	beq.n	8001710 <TIM_OC3Init+0x48>
 8001704:	4a9b      	ldr	r2, [pc, #620]	; (8001974 <TIM_OC3Init+0x2ac>)
 8001706:	4b9c      	ldr	r3, [pc, #624]	; (8001978 <TIM_OC3Init+0x2b0>)
 8001708:	1c10      	adds	r0, r2, #0
 800170a:	1c19      	adds	r1, r3, #0
 800170c:	f000 fff4 	bl	80026f8 <assert_failed>
 8001710:	683b      	ldr	r3, [r7, #0]
 8001712:	881b      	ldrh	r3, [r3, #0]
 8001714:	2b00      	cmp	r3, #0
 8001716:	d019      	beq.n	800174c <TIM_OC3Init+0x84>
 8001718:	683b      	ldr	r3, [r7, #0]
 800171a:	881b      	ldrh	r3, [r3, #0]
 800171c:	2b10      	cmp	r3, #16
 800171e:	d015      	beq.n	800174c <TIM_OC3Init+0x84>
 8001720:	683b      	ldr	r3, [r7, #0]
 8001722:	881b      	ldrh	r3, [r3, #0]
 8001724:	2b20      	cmp	r3, #32
 8001726:	d011      	beq.n	800174c <TIM_OC3Init+0x84>
 8001728:	683b      	ldr	r3, [r7, #0]
 800172a:	881b      	ldrh	r3, [r3, #0]
 800172c:	2b30      	cmp	r3, #48	; 0x30
 800172e:	d00d      	beq.n	800174c <TIM_OC3Init+0x84>
 8001730:	683b      	ldr	r3, [r7, #0]
 8001732:	881b      	ldrh	r3, [r3, #0]
 8001734:	2b60      	cmp	r3, #96	; 0x60
 8001736:	d009      	beq.n	800174c <TIM_OC3Init+0x84>
 8001738:	683b      	ldr	r3, [r7, #0]
 800173a:	881b      	ldrh	r3, [r3, #0]
 800173c:	2b70      	cmp	r3, #112	; 0x70
 800173e:	d005      	beq.n	800174c <TIM_OC3Init+0x84>
 8001740:	4a8c      	ldr	r2, [pc, #560]	; (8001974 <TIM_OC3Init+0x2ac>)
 8001742:	4b8e      	ldr	r3, [pc, #568]	; (800197c <TIM_OC3Init+0x2b4>)
 8001744:	1c10      	adds	r0, r2, #0
 8001746:	1c19      	adds	r1, r3, #0
 8001748:	f000 ffd6 	bl	80026f8 <assert_failed>
 800174c:	683b      	ldr	r3, [r7, #0]
 800174e:	885b      	ldrh	r3, [r3, #2]
 8001750:	2b00      	cmp	r3, #0
 8001752:	d009      	beq.n	8001768 <TIM_OC3Init+0xa0>
 8001754:	683b      	ldr	r3, [r7, #0]
 8001756:	885b      	ldrh	r3, [r3, #2]
 8001758:	2b01      	cmp	r3, #1
 800175a:	d005      	beq.n	8001768 <TIM_OC3Init+0xa0>
 800175c:	4a85      	ldr	r2, [pc, #532]	; (8001974 <TIM_OC3Init+0x2ac>)
 800175e:	4b88      	ldr	r3, [pc, #544]	; (8001980 <TIM_OC3Init+0x2b8>)
 8001760:	1c10      	adds	r0, r2, #0
 8001762:	1c19      	adds	r1, r3, #0
 8001764:	f000 ffc8 	bl	80026f8 <assert_failed>
 8001768:	683b      	ldr	r3, [r7, #0]
 800176a:	899b      	ldrh	r3, [r3, #12]
 800176c:	2b00      	cmp	r3, #0
 800176e:	d00a      	beq.n	8001786 <TIM_OC3Init+0xbe>
 8001770:	683b      	ldr	r3, [r7, #0]
 8001772:	899b      	ldrh	r3, [r3, #12]
 8001774:	2b02      	cmp	r3, #2
 8001776:	d006      	beq.n	8001786 <TIM_OC3Init+0xbe>
 8001778:	4a7e      	ldr	r2, [pc, #504]	; (8001974 <TIM_OC3Init+0x2ac>)
 800177a:	23e2      	movs	r3, #226	; 0xe2
 800177c:	009b      	lsls	r3, r3, #2
 800177e:	1c10      	adds	r0, r2, #0
 8001780:	1c19      	adds	r1, r3, #0
 8001782:	f000 ffb9 	bl	80026f8 <assert_failed>
 8001786:	687b      	ldr	r3, [r7, #4]
 8001788:	8c1b      	ldrh	r3, [r3, #32]
 800178a:	b29a      	uxth	r2, r3
 800178c:	4b7d      	ldr	r3, [pc, #500]	; (8001984 <TIM_OC3Init+0x2bc>)
 800178e:	4013      	ands	r3, r2
 8001790:	b29a      	uxth	r2, r3
 8001792:	687b      	ldr	r3, [r7, #4]
 8001794:	841a      	strh	r2, [r3, #32]
 8001796:	1c3b      	adds	r3, r7, #0
 8001798:	330e      	adds	r3, #14
 800179a:	687a      	ldr	r2, [r7, #4]
 800179c:	8c12      	ldrh	r2, [r2, #32]
 800179e:	801a      	strh	r2, [r3, #0]
 80017a0:	1c3b      	adds	r3, r7, #0
 80017a2:	330c      	adds	r3, #12
 80017a4:	687a      	ldr	r2, [r7, #4]
 80017a6:	8892      	ldrh	r2, [r2, #4]
 80017a8:	801a      	strh	r2, [r3, #0]
 80017aa:	1c3b      	adds	r3, r7, #0
 80017ac:	330a      	adds	r3, #10
 80017ae:	687a      	ldr	r2, [r7, #4]
 80017b0:	8b92      	ldrh	r2, [r2, #28]
 80017b2:	801a      	strh	r2, [r3, #0]
 80017b4:	1c3b      	adds	r3, r7, #0
 80017b6:	330a      	adds	r3, #10
 80017b8:	1c3a      	adds	r2, r7, #0
 80017ba:	320a      	adds	r2, #10
 80017bc:	8812      	ldrh	r2, [r2, #0]
 80017be:	2170      	movs	r1, #112	; 0x70
 80017c0:	438a      	bics	r2, r1
 80017c2:	801a      	strh	r2, [r3, #0]
 80017c4:	1c3b      	adds	r3, r7, #0
 80017c6:	330a      	adds	r3, #10
 80017c8:	1c3a      	adds	r2, r7, #0
 80017ca:	320a      	adds	r2, #10
 80017cc:	8812      	ldrh	r2, [r2, #0]
 80017ce:	2103      	movs	r1, #3
 80017d0:	438a      	bics	r2, r1
 80017d2:	801a      	strh	r2, [r3, #0]
 80017d4:	683b      	ldr	r3, [r7, #0]
 80017d6:	8819      	ldrh	r1, [r3, #0]
 80017d8:	1c3b      	adds	r3, r7, #0
 80017da:	330a      	adds	r3, #10
 80017dc:	1c3a      	adds	r2, r7, #0
 80017de:	320a      	adds	r2, #10
 80017e0:	8812      	ldrh	r2, [r2, #0]
 80017e2:	430a      	orrs	r2, r1
 80017e4:	801a      	strh	r2, [r3, #0]
 80017e6:	1c3b      	adds	r3, r7, #0
 80017e8:	330e      	adds	r3, #14
 80017ea:	1c3a      	adds	r2, r7, #0
 80017ec:	320e      	adds	r2, #14
 80017ee:	8811      	ldrh	r1, [r2, #0]
 80017f0:	4a65      	ldr	r2, [pc, #404]	; (8001988 <TIM_OC3Init+0x2c0>)
 80017f2:	400a      	ands	r2, r1
 80017f4:	801a      	strh	r2, [r3, #0]
 80017f6:	683b      	ldr	r3, [r7, #0]
 80017f8:	899b      	ldrh	r3, [r3, #12]
 80017fa:	021b      	lsls	r3, r3, #8
 80017fc:	b299      	uxth	r1, r3
 80017fe:	1c3b      	adds	r3, r7, #0
 8001800:	330e      	adds	r3, #14
 8001802:	1c3a      	adds	r2, r7, #0
 8001804:	320e      	adds	r2, #14
 8001806:	8812      	ldrh	r2, [r2, #0]
 8001808:	430a      	orrs	r2, r1
 800180a:	801a      	strh	r2, [r3, #0]
 800180c:	683b      	ldr	r3, [r7, #0]
 800180e:	885b      	ldrh	r3, [r3, #2]
 8001810:	021b      	lsls	r3, r3, #8
 8001812:	b299      	uxth	r1, r3
 8001814:	1c3b      	adds	r3, r7, #0
 8001816:	330e      	adds	r3, #14
 8001818:	1c3a      	adds	r2, r7, #0
 800181a:	320e      	adds	r2, #14
 800181c:	8812      	ldrh	r2, [r2, #0]
 800181e:	430a      	orrs	r2, r1
 8001820:	801a      	strh	r2, [r3, #0]
 8001822:	687a      	ldr	r2, [r7, #4]
 8001824:	4b51      	ldr	r3, [pc, #324]	; (800196c <TIM_OC3Init+0x2a4>)
 8001826:	429a      	cmp	r2, r3
 8001828:	d000      	beq.n	800182c <TIM_OC3Init+0x164>
 800182a:	e088      	b.n	800193e <TIM_OC3Init+0x276>
 800182c:	683b      	ldr	r3, [r7, #0]
 800182e:	889b      	ldrh	r3, [r3, #4]
 8001830:	2b00      	cmp	r3, #0
 8001832:	d00a      	beq.n	800184a <TIM_OC3Init+0x182>
 8001834:	683b      	ldr	r3, [r7, #0]
 8001836:	889b      	ldrh	r3, [r3, #4]
 8001838:	2b04      	cmp	r3, #4
 800183a:	d006      	beq.n	800184a <TIM_OC3Init+0x182>
 800183c:	4a4d      	ldr	r2, [pc, #308]	; (8001974 <TIM_OC3Init+0x2ac>)
 800183e:	23e9      	movs	r3, #233	; 0xe9
 8001840:	009b      	lsls	r3, r3, #2
 8001842:	1c10      	adds	r0, r2, #0
 8001844:	1c19      	adds	r1, r3, #0
 8001846:	f000 ff57 	bl	80026f8 <assert_failed>
 800184a:	683b      	ldr	r3, [r7, #0]
 800184c:	89db      	ldrh	r3, [r3, #14]
 800184e:	2b00      	cmp	r3, #0
 8001850:	d009      	beq.n	8001866 <TIM_OC3Init+0x19e>
 8001852:	683b      	ldr	r3, [r7, #0]
 8001854:	89db      	ldrh	r3, [r3, #14]
 8001856:	2b08      	cmp	r3, #8
 8001858:	d005      	beq.n	8001866 <TIM_OC3Init+0x19e>
 800185a:	4a46      	ldr	r2, [pc, #280]	; (8001974 <TIM_OC3Init+0x2ac>)
 800185c:	4b4b      	ldr	r3, [pc, #300]	; (800198c <TIM_OC3Init+0x2c4>)
 800185e:	1c10      	adds	r0, r2, #0
 8001860:	1c19      	adds	r1, r3, #0
 8001862:	f000 ff49 	bl	80026f8 <assert_failed>
 8001866:	683b      	ldr	r3, [r7, #0]
 8001868:	8a5a      	ldrh	r2, [r3, #18]
 800186a:	2380      	movs	r3, #128	; 0x80
 800186c:	009b      	lsls	r3, r3, #2
 800186e:	429a      	cmp	r2, r3
 8001870:	d009      	beq.n	8001886 <TIM_OC3Init+0x1be>
 8001872:	683b      	ldr	r3, [r7, #0]
 8001874:	8a5b      	ldrh	r3, [r3, #18]
 8001876:	2b00      	cmp	r3, #0
 8001878:	d005      	beq.n	8001886 <TIM_OC3Init+0x1be>
 800187a:	4a3e      	ldr	r2, [pc, #248]	; (8001974 <TIM_OC3Init+0x2ac>)
 800187c:	4b44      	ldr	r3, [pc, #272]	; (8001990 <TIM_OC3Init+0x2c8>)
 800187e:	1c10      	adds	r0, r2, #0
 8001880:	1c19      	adds	r1, r3, #0
 8001882:	f000 ff39 	bl	80026f8 <assert_failed>
 8001886:	683b      	ldr	r3, [r7, #0]
 8001888:	8a1a      	ldrh	r2, [r3, #16]
 800188a:	2380      	movs	r3, #128	; 0x80
 800188c:	005b      	lsls	r3, r3, #1
 800188e:	429a      	cmp	r2, r3
 8001890:	d009      	beq.n	80018a6 <TIM_OC3Init+0x1de>
 8001892:	683b      	ldr	r3, [r7, #0]
 8001894:	8a1b      	ldrh	r3, [r3, #16]
 8001896:	2b00      	cmp	r3, #0
 8001898:	d005      	beq.n	80018a6 <TIM_OC3Init+0x1de>
 800189a:	4a36      	ldr	r2, [pc, #216]	; (8001974 <TIM_OC3Init+0x2ac>)
 800189c:	4b3d      	ldr	r3, [pc, #244]	; (8001994 <TIM_OC3Init+0x2cc>)
 800189e:	1c10      	adds	r0, r2, #0
 80018a0:	1c19      	adds	r1, r3, #0
 80018a2:	f000 ff29 	bl	80026f8 <assert_failed>
 80018a6:	1c3b      	adds	r3, r7, #0
 80018a8:	330e      	adds	r3, #14
 80018aa:	1c3a      	adds	r2, r7, #0
 80018ac:	320e      	adds	r2, #14
 80018ae:	8811      	ldrh	r1, [r2, #0]
 80018b0:	4a39      	ldr	r2, [pc, #228]	; (8001998 <TIM_OC3Init+0x2d0>)
 80018b2:	400a      	ands	r2, r1
 80018b4:	801a      	strh	r2, [r3, #0]
 80018b6:	683b      	ldr	r3, [r7, #0]
 80018b8:	89db      	ldrh	r3, [r3, #14]
 80018ba:	021b      	lsls	r3, r3, #8
 80018bc:	b299      	uxth	r1, r3
 80018be:	1c3b      	adds	r3, r7, #0
 80018c0:	330e      	adds	r3, #14
 80018c2:	1c3a      	adds	r2, r7, #0
 80018c4:	320e      	adds	r2, #14
 80018c6:	8812      	ldrh	r2, [r2, #0]
 80018c8:	430a      	orrs	r2, r1
 80018ca:	801a      	strh	r2, [r3, #0]
 80018cc:	1c3b      	adds	r3, r7, #0
 80018ce:	330e      	adds	r3, #14
 80018d0:	1c3a      	adds	r2, r7, #0
 80018d2:	320e      	adds	r2, #14
 80018d4:	8811      	ldrh	r1, [r2, #0]
 80018d6:	4a31      	ldr	r2, [pc, #196]	; (800199c <TIM_OC3Init+0x2d4>)
 80018d8:	400a      	ands	r2, r1
 80018da:	801a      	strh	r2, [r3, #0]
 80018dc:	683b      	ldr	r3, [r7, #0]
 80018de:	889b      	ldrh	r3, [r3, #4]
 80018e0:	021b      	lsls	r3, r3, #8
 80018e2:	b299      	uxth	r1, r3
 80018e4:	1c3b      	adds	r3, r7, #0
 80018e6:	330e      	adds	r3, #14
 80018e8:	1c3a      	adds	r2, r7, #0
 80018ea:	320e      	adds	r2, #14
 80018ec:	8812      	ldrh	r2, [r2, #0]
 80018ee:	430a      	orrs	r2, r1
 80018f0:	801a      	strh	r2, [r3, #0]
 80018f2:	1c3b      	adds	r3, r7, #0
 80018f4:	330c      	adds	r3, #12
 80018f6:	1c3a      	adds	r2, r7, #0
 80018f8:	320c      	adds	r2, #12
 80018fa:	8811      	ldrh	r1, [r2, #0]
 80018fc:	4a28      	ldr	r2, [pc, #160]	; (80019a0 <TIM_OC3Init+0x2d8>)
 80018fe:	400a      	ands	r2, r1
 8001900:	801a      	strh	r2, [r3, #0]
 8001902:	1c3b      	adds	r3, r7, #0
 8001904:	330c      	adds	r3, #12
 8001906:	1c3a      	adds	r2, r7, #0
 8001908:	320c      	adds	r2, #12
 800190a:	8811      	ldrh	r1, [r2, #0]
 800190c:	4a25      	ldr	r2, [pc, #148]	; (80019a4 <TIM_OC3Init+0x2dc>)
 800190e:	400a      	ands	r2, r1
 8001910:	801a      	strh	r2, [r3, #0]
 8001912:	683b      	ldr	r3, [r7, #0]
 8001914:	8a1b      	ldrh	r3, [r3, #16]
 8001916:	011b      	lsls	r3, r3, #4
 8001918:	b299      	uxth	r1, r3
 800191a:	1c3b      	adds	r3, r7, #0
 800191c:	330c      	adds	r3, #12
 800191e:	1c3a      	adds	r2, r7, #0
 8001920:	320c      	adds	r2, #12
 8001922:	8812      	ldrh	r2, [r2, #0]
 8001924:	430a      	orrs	r2, r1
 8001926:	801a      	strh	r2, [r3, #0]
 8001928:	683b      	ldr	r3, [r7, #0]
 800192a:	8a5b      	ldrh	r3, [r3, #18]
 800192c:	011b      	lsls	r3, r3, #4
 800192e:	b299      	uxth	r1, r3
 8001930:	1c3b      	adds	r3, r7, #0
 8001932:	330c      	adds	r3, #12
 8001934:	1c3a      	adds	r2, r7, #0
 8001936:	320c      	adds	r2, #12
 8001938:	8812      	ldrh	r2, [r2, #0]
 800193a:	430a      	orrs	r2, r1
 800193c:	801a      	strh	r2, [r3, #0]
 800193e:	687b      	ldr	r3, [r7, #4]
 8001940:	1c3a      	adds	r2, r7, #0
 8001942:	320c      	adds	r2, #12
 8001944:	8812      	ldrh	r2, [r2, #0]
 8001946:	809a      	strh	r2, [r3, #4]
 8001948:	687b      	ldr	r3, [r7, #4]
 800194a:	1c3a      	adds	r2, r7, #0
 800194c:	320a      	adds	r2, #10
 800194e:	8812      	ldrh	r2, [r2, #0]
 8001950:	839a      	strh	r2, [r3, #28]
 8001952:	683b      	ldr	r3, [r7, #0]
 8001954:	689a      	ldr	r2, [r3, #8]
 8001956:	687b      	ldr	r3, [r7, #4]
 8001958:	63da      	str	r2, [r3, #60]	; 0x3c
 800195a:	687b      	ldr	r3, [r7, #4]
 800195c:	1c3a      	adds	r2, r7, #0
 800195e:	320e      	adds	r2, #14
 8001960:	8812      	ldrh	r2, [r2, #0]
 8001962:	841a      	strh	r2, [r3, #32]
 8001964:	46bd      	mov	sp, r7
 8001966:	b004      	add	sp, #16
 8001968:	bd80      	pop	{r7, pc}
 800196a:	46c0      	nop			; (mov r8, r8)
 800196c:	40012c00 	.word	0x40012c00
 8001970:	40000400 	.word	0x40000400
 8001974:	08003a1c 	.word	0x08003a1c
 8001978:	00000385 	.word	0x00000385
 800197c:	00000386 	.word	0x00000386
 8001980:	00000387 	.word	0x00000387
 8001984:	fffffeff 	.word	0xfffffeff
 8001988:	fffffdff 	.word	0xfffffdff
 800198c:	000003a5 	.word	0x000003a5
 8001990:	000003a6 	.word	0x000003a6
 8001994:	000003a7 	.word	0x000003a7
 8001998:	fffff7ff 	.word	0xfffff7ff
 800199c:	fffffbff 	.word	0xfffffbff
 80019a0:	ffffefff 	.word	0xffffefff
 80019a4:	ffffdfff 	.word	0xffffdfff

080019a8 <TIM_OC4Init>:
 80019a8:	b580      	push	{r7, lr}
 80019aa:	b084      	sub	sp, #16
 80019ac:	af00      	add	r7, sp, #0
 80019ae:	6078      	str	r0, [r7, #4]
 80019b0:	6039      	str	r1, [r7, #0]
 80019b2:	1c3b      	adds	r3, r7, #0
 80019b4:	330c      	adds	r3, #12
 80019b6:	2200      	movs	r2, #0
 80019b8:	801a      	strh	r2, [r3, #0]
 80019ba:	1c3b      	adds	r3, r7, #0
 80019bc:	330a      	adds	r3, #10
 80019be:	2200      	movs	r2, #0
 80019c0:	801a      	strh	r2, [r3, #0]
 80019c2:	1c3b      	adds	r3, r7, #0
 80019c4:	330e      	adds	r3, #14
 80019c6:	2200      	movs	r2, #0
 80019c8:	801a      	strh	r2, [r3, #0]
 80019ca:	687a      	ldr	r2, [r7, #4]
 80019cc:	4b6c      	ldr	r3, [pc, #432]	; (8001b80 <TIM_OC4Init+0x1d8>)
 80019ce:	429a      	cmp	r2, r3
 80019d0:	d00e      	beq.n	80019f0 <TIM_OC4Init+0x48>
 80019d2:	687a      	ldr	r2, [r7, #4]
 80019d4:	2380      	movs	r3, #128	; 0x80
 80019d6:	05db      	lsls	r3, r3, #23
 80019d8:	429a      	cmp	r2, r3
 80019da:	d009      	beq.n	80019f0 <TIM_OC4Init+0x48>
 80019dc:	687a      	ldr	r2, [r7, #4]
 80019de:	4b69      	ldr	r3, [pc, #420]	; (8001b84 <TIM_OC4Init+0x1dc>)
 80019e0:	429a      	cmp	r2, r3
 80019e2:	d005      	beq.n	80019f0 <TIM_OC4Init+0x48>
 80019e4:	4a68      	ldr	r2, [pc, #416]	; (8001b88 <TIM_OC4Init+0x1e0>)
 80019e6:	4b69      	ldr	r3, [pc, #420]	; (8001b8c <TIM_OC4Init+0x1e4>)
 80019e8:	1c10      	adds	r0, r2, #0
 80019ea:	1c19      	adds	r1, r3, #0
 80019ec:	f000 fe84 	bl	80026f8 <assert_failed>
 80019f0:	683b      	ldr	r3, [r7, #0]
 80019f2:	881b      	ldrh	r3, [r3, #0]
 80019f4:	2b00      	cmp	r3, #0
 80019f6:	d019      	beq.n	8001a2c <TIM_OC4Init+0x84>
 80019f8:	683b      	ldr	r3, [r7, #0]
 80019fa:	881b      	ldrh	r3, [r3, #0]
 80019fc:	2b10      	cmp	r3, #16
 80019fe:	d015      	beq.n	8001a2c <TIM_OC4Init+0x84>
 8001a00:	683b      	ldr	r3, [r7, #0]
 8001a02:	881b      	ldrh	r3, [r3, #0]
 8001a04:	2b20      	cmp	r3, #32
 8001a06:	d011      	beq.n	8001a2c <TIM_OC4Init+0x84>
 8001a08:	683b      	ldr	r3, [r7, #0]
 8001a0a:	881b      	ldrh	r3, [r3, #0]
 8001a0c:	2b30      	cmp	r3, #48	; 0x30
 8001a0e:	d00d      	beq.n	8001a2c <TIM_OC4Init+0x84>
 8001a10:	683b      	ldr	r3, [r7, #0]
 8001a12:	881b      	ldrh	r3, [r3, #0]
 8001a14:	2b60      	cmp	r3, #96	; 0x60
 8001a16:	d009      	beq.n	8001a2c <TIM_OC4Init+0x84>
 8001a18:	683b      	ldr	r3, [r7, #0]
 8001a1a:	881b      	ldrh	r3, [r3, #0]
 8001a1c:	2b70      	cmp	r3, #112	; 0x70
 8001a1e:	d005      	beq.n	8001a2c <TIM_OC4Init+0x84>
 8001a20:	4a59      	ldr	r2, [pc, #356]	; (8001b88 <TIM_OC4Init+0x1e0>)
 8001a22:	4b5b      	ldr	r3, [pc, #364]	; (8001b90 <TIM_OC4Init+0x1e8>)
 8001a24:	1c10      	adds	r0, r2, #0
 8001a26:	1c19      	adds	r1, r3, #0
 8001a28:	f000 fe66 	bl	80026f8 <assert_failed>
 8001a2c:	683b      	ldr	r3, [r7, #0]
 8001a2e:	885b      	ldrh	r3, [r3, #2]
 8001a30:	2b00      	cmp	r3, #0
 8001a32:	d009      	beq.n	8001a48 <TIM_OC4Init+0xa0>
 8001a34:	683b      	ldr	r3, [r7, #0]
 8001a36:	885b      	ldrh	r3, [r3, #2]
 8001a38:	2b01      	cmp	r3, #1
 8001a3a:	d005      	beq.n	8001a48 <TIM_OC4Init+0xa0>
 8001a3c:	4a52      	ldr	r2, [pc, #328]	; (8001b88 <TIM_OC4Init+0x1e0>)
 8001a3e:	4b55      	ldr	r3, [pc, #340]	; (8001b94 <TIM_OC4Init+0x1ec>)
 8001a40:	1c10      	adds	r0, r2, #0
 8001a42:	1c19      	adds	r1, r3, #0
 8001a44:	f000 fe58 	bl	80026f8 <assert_failed>
 8001a48:	683b      	ldr	r3, [r7, #0]
 8001a4a:	899b      	ldrh	r3, [r3, #12]
 8001a4c:	2b00      	cmp	r3, #0
 8001a4e:	d00a      	beq.n	8001a66 <TIM_OC4Init+0xbe>
 8001a50:	683b      	ldr	r3, [r7, #0]
 8001a52:	899b      	ldrh	r3, [r3, #12]
 8001a54:	2b02      	cmp	r3, #2
 8001a56:	d006      	beq.n	8001a66 <TIM_OC4Init+0xbe>
 8001a58:	4a4b      	ldr	r2, [pc, #300]	; (8001b88 <TIM_OC4Init+0x1e0>)
 8001a5a:	23f6      	movs	r3, #246	; 0xf6
 8001a5c:	009b      	lsls	r3, r3, #2
 8001a5e:	1c10      	adds	r0, r2, #0
 8001a60:	1c19      	adds	r1, r3, #0
 8001a62:	f000 fe49 	bl	80026f8 <assert_failed>
 8001a66:	687b      	ldr	r3, [r7, #4]
 8001a68:	8c1b      	ldrh	r3, [r3, #32]
 8001a6a:	b29a      	uxth	r2, r3
 8001a6c:	4b4a      	ldr	r3, [pc, #296]	; (8001b98 <TIM_OC4Init+0x1f0>)
 8001a6e:	4013      	ands	r3, r2
 8001a70:	b29a      	uxth	r2, r3
 8001a72:	687b      	ldr	r3, [r7, #4]
 8001a74:	841a      	strh	r2, [r3, #32]
 8001a76:	1c3b      	adds	r3, r7, #0
 8001a78:	330a      	adds	r3, #10
 8001a7a:	687a      	ldr	r2, [r7, #4]
 8001a7c:	8c12      	ldrh	r2, [r2, #32]
 8001a7e:	801a      	strh	r2, [r3, #0]
 8001a80:	1c3b      	adds	r3, r7, #0
 8001a82:	330e      	adds	r3, #14
 8001a84:	687a      	ldr	r2, [r7, #4]
 8001a86:	8892      	ldrh	r2, [r2, #4]
 8001a88:	801a      	strh	r2, [r3, #0]
 8001a8a:	1c3b      	adds	r3, r7, #0
 8001a8c:	330c      	adds	r3, #12
 8001a8e:	687a      	ldr	r2, [r7, #4]
 8001a90:	8b92      	ldrh	r2, [r2, #28]
 8001a92:	801a      	strh	r2, [r3, #0]
 8001a94:	1c3b      	adds	r3, r7, #0
 8001a96:	330c      	adds	r3, #12
 8001a98:	1c3a      	adds	r2, r7, #0
 8001a9a:	320c      	adds	r2, #12
 8001a9c:	8811      	ldrh	r1, [r2, #0]
 8001a9e:	4a3f      	ldr	r2, [pc, #252]	; (8001b9c <TIM_OC4Init+0x1f4>)
 8001aa0:	400a      	ands	r2, r1
 8001aa2:	801a      	strh	r2, [r3, #0]
 8001aa4:	1c3b      	adds	r3, r7, #0
 8001aa6:	330c      	adds	r3, #12
 8001aa8:	1c3a      	adds	r2, r7, #0
 8001aaa:	320c      	adds	r2, #12
 8001aac:	8811      	ldrh	r1, [r2, #0]
 8001aae:	4a3c      	ldr	r2, [pc, #240]	; (8001ba0 <TIM_OC4Init+0x1f8>)
 8001ab0:	400a      	ands	r2, r1
 8001ab2:	801a      	strh	r2, [r3, #0]
 8001ab4:	683b      	ldr	r3, [r7, #0]
 8001ab6:	881b      	ldrh	r3, [r3, #0]
 8001ab8:	021b      	lsls	r3, r3, #8
 8001aba:	b299      	uxth	r1, r3
 8001abc:	1c3b      	adds	r3, r7, #0
 8001abe:	330c      	adds	r3, #12
 8001ac0:	1c3a      	adds	r2, r7, #0
 8001ac2:	320c      	adds	r2, #12
 8001ac4:	8812      	ldrh	r2, [r2, #0]
 8001ac6:	430a      	orrs	r2, r1
 8001ac8:	801a      	strh	r2, [r3, #0]
 8001aca:	1c3b      	adds	r3, r7, #0
 8001acc:	330a      	adds	r3, #10
 8001ace:	1c3a      	adds	r2, r7, #0
 8001ad0:	320a      	adds	r2, #10
 8001ad2:	8811      	ldrh	r1, [r2, #0]
 8001ad4:	4a33      	ldr	r2, [pc, #204]	; (8001ba4 <TIM_OC4Init+0x1fc>)
 8001ad6:	400a      	ands	r2, r1
 8001ad8:	801a      	strh	r2, [r3, #0]
 8001ada:	683b      	ldr	r3, [r7, #0]
 8001adc:	899b      	ldrh	r3, [r3, #12]
 8001ade:	031b      	lsls	r3, r3, #12
 8001ae0:	b299      	uxth	r1, r3
 8001ae2:	1c3b      	adds	r3, r7, #0
 8001ae4:	330a      	adds	r3, #10
 8001ae6:	1c3a      	adds	r2, r7, #0
 8001ae8:	320a      	adds	r2, #10
 8001aea:	8812      	ldrh	r2, [r2, #0]
 8001aec:	430a      	orrs	r2, r1
 8001aee:	801a      	strh	r2, [r3, #0]
 8001af0:	683b      	ldr	r3, [r7, #0]
 8001af2:	885b      	ldrh	r3, [r3, #2]
 8001af4:	031b      	lsls	r3, r3, #12
 8001af6:	b299      	uxth	r1, r3
 8001af8:	1c3b      	adds	r3, r7, #0
 8001afa:	330a      	adds	r3, #10
 8001afc:	1c3a      	adds	r2, r7, #0
 8001afe:	320a      	adds	r2, #10
 8001b00:	8812      	ldrh	r2, [r2, #0]
 8001b02:	430a      	orrs	r2, r1
 8001b04:	801a      	strh	r2, [r3, #0]
 8001b06:	687a      	ldr	r2, [r7, #4]
 8001b08:	4b1d      	ldr	r3, [pc, #116]	; (8001b80 <TIM_OC4Init+0x1d8>)
 8001b0a:	429a      	cmp	r2, r3
 8001b0c:	d122      	bne.n	8001b54 <TIM_OC4Init+0x1ac>
 8001b0e:	683b      	ldr	r3, [r7, #0]
 8001b10:	8a1a      	ldrh	r2, [r3, #16]
 8001b12:	2380      	movs	r3, #128	; 0x80
 8001b14:	005b      	lsls	r3, r3, #1
 8001b16:	429a      	cmp	r2, r3
 8001b18:	d009      	beq.n	8001b2e <TIM_OC4Init+0x186>
 8001b1a:	683b      	ldr	r3, [r7, #0]
 8001b1c:	8a1b      	ldrh	r3, [r3, #16]
 8001b1e:	2b00      	cmp	r3, #0
 8001b20:	d005      	beq.n	8001b2e <TIM_OC4Init+0x186>
 8001b22:	4a19      	ldr	r2, [pc, #100]	; (8001b88 <TIM_OC4Init+0x1e0>)
 8001b24:	4b20      	ldr	r3, [pc, #128]	; (8001ba8 <TIM_OC4Init+0x200>)
 8001b26:	1c10      	adds	r0, r2, #0
 8001b28:	1c19      	adds	r1, r3, #0
 8001b2a:	f000 fde5 	bl	80026f8 <assert_failed>
 8001b2e:	1c3b      	adds	r3, r7, #0
 8001b30:	330e      	adds	r3, #14
 8001b32:	1c3a      	adds	r2, r7, #0
 8001b34:	320e      	adds	r2, #14
 8001b36:	8811      	ldrh	r1, [r2, #0]
 8001b38:	4a1c      	ldr	r2, [pc, #112]	; (8001bac <TIM_OC4Init+0x204>)
 8001b3a:	400a      	ands	r2, r1
 8001b3c:	801a      	strh	r2, [r3, #0]
 8001b3e:	683b      	ldr	r3, [r7, #0]
 8001b40:	8a1b      	ldrh	r3, [r3, #16]
 8001b42:	019b      	lsls	r3, r3, #6
 8001b44:	b299      	uxth	r1, r3
 8001b46:	1c3b      	adds	r3, r7, #0
 8001b48:	330e      	adds	r3, #14
 8001b4a:	1c3a      	adds	r2, r7, #0
 8001b4c:	320e      	adds	r2, #14
 8001b4e:	8812      	ldrh	r2, [r2, #0]
 8001b50:	430a      	orrs	r2, r1
 8001b52:	801a      	strh	r2, [r3, #0]
 8001b54:	687b      	ldr	r3, [r7, #4]
 8001b56:	1c3a      	adds	r2, r7, #0
 8001b58:	320e      	adds	r2, #14
 8001b5a:	8812      	ldrh	r2, [r2, #0]
 8001b5c:	809a      	strh	r2, [r3, #4]
 8001b5e:	687b      	ldr	r3, [r7, #4]
 8001b60:	1c3a      	adds	r2, r7, #0
 8001b62:	320c      	adds	r2, #12
 8001b64:	8812      	ldrh	r2, [r2, #0]
 8001b66:	839a      	strh	r2, [r3, #28]
 8001b68:	683b      	ldr	r3, [r7, #0]
 8001b6a:	689a      	ldr	r2, [r3, #8]
 8001b6c:	687b      	ldr	r3, [r7, #4]
 8001b6e:	641a      	str	r2, [r3, #64]	; 0x40
 8001b70:	687b      	ldr	r3, [r7, #4]
 8001b72:	1c3a      	adds	r2, r7, #0
 8001b74:	320a      	adds	r2, #10
 8001b76:	8812      	ldrh	r2, [r2, #0]
 8001b78:	841a      	strh	r2, [r3, #32]
 8001b7a:	46bd      	mov	sp, r7
 8001b7c:	b004      	add	sp, #16
 8001b7e:	bd80      	pop	{r7, pc}
 8001b80:	40012c00 	.word	0x40012c00
 8001b84:	40000400 	.word	0x40000400
 8001b88:	08003a1c 	.word	0x08003a1c
 8001b8c:	000003d5 	.word	0x000003d5
 8001b90:	000003d6 	.word	0x000003d6
 8001b94:	000003d7 	.word	0x000003d7
 8001b98:	ffffefff 	.word	0xffffefff
 8001b9c:	ffff8fff 	.word	0xffff8fff
 8001ba0:	fffffcff 	.word	0xfffffcff
 8001ba4:	ffffdfff 	.word	0xffffdfff
 8001ba8:	000003f5 	.word	0x000003f5
 8001bac:	ffffbfff 	.word	0xffffbfff

08001bb0 <TIM_SetCompare1>:
 8001bb0:	b580      	push	{r7, lr}
 8001bb2:	b082      	sub	sp, #8
 8001bb4:	af00      	add	r7, sp, #0
 8001bb6:	6078      	str	r0, [r7, #4]
 8001bb8:	6039      	str	r1, [r7, #0]
 8001bba:	687a      	ldr	r2, [r7, #4]
 8001bbc:	4b13      	ldr	r3, [pc, #76]	; (8001c0c <TIM_SetCompare1+0x5c>)
 8001bbe:	429a      	cmp	r2, r3
 8001bc0:	d01e      	beq.n	8001c00 <TIM_SetCompare1+0x50>
 8001bc2:	687a      	ldr	r2, [r7, #4]
 8001bc4:	2380      	movs	r3, #128	; 0x80
 8001bc6:	05db      	lsls	r3, r3, #23
 8001bc8:	429a      	cmp	r2, r3
 8001bca:	d019      	beq.n	8001c00 <TIM_SetCompare1+0x50>
 8001bcc:	687a      	ldr	r2, [r7, #4]
 8001bce:	4b10      	ldr	r3, [pc, #64]	; (8001c10 <TIM_SetCompare1+0x60>)
 8001bd0:	429a      	cmp	r2, r3
 8001bd2:	d015      	beq.n	8001c00 <TIM_SetCompare1+0x50>
 8001bd4:	687a      	ldr	r2, [r7, #4]
 8001bd6:	4b0f      	ldr	r3, [pc, #60]	; (8001c14 <TIM_SetCompare1+0x64>)
 8001bd8:	429a      	cmp	r2, r3
 8001bda:	d011      	beq.n	8001c00 <TIM_SetCompare1+0x50>
 8001bdc:	687a      	ldr	r2, [r7, #4]
 8001bde:	4b0e      	ldr	r3, [pc, #56]	; (8001c18 <TIM_SetCompare1+0x68>)
 8001be0:	429a      	cmp	r2, r3
 8001be2:	d00d      	beq.n	8001c00 <TIM_SetCompare1+0x50>
 8001be4:	687a      	ldr	r2, [r7, #4]
 8001be6:	4b0d      	ldr	r3, [pc, #52]	; (8001c1c <TIM_SetCompare1+0x6c>)
 8001be8:	429a      	cmp	r2, r3
 8001bea:	d009      	beq.n	8001c00 <TIM_SetCompare1+0x50>
 8001bec:	687a      	ldr	r2, [r7, #4]
 8001bee:	4b0c      	ldr	r3, [pc, #48]	; (8001c20 <TIM_SetCompare1+0x70>)
 8001bf0:	429a      	cmp	r2, r3
 8001bf2:	d005      	beq.n	8001c00 <TIM_SetCompare1+0x50>
 8001bf4:	4a0b      	ldr	r2, [pc, #44]	; (8001c24 <TIM_SetCompare1+0x74>)
 8001bf6:	4b0c      	ldr	r3, [pc, #48]	; (8001c28 <TIM_SetCompare1+0x78>)
 8001bf8:	1c10      	adds	r0, r2, #0
 8001bfa:	1c19      	adds	r1, r3, #0
 8001bfc:	f000 fd7c 	bl	80026f8 <assert_failed>
 8001c00:	687b      	ldr	r3, [r7, #4]
 8001c02:	683a      	ldr	r2, [r7, #0]
 8001c04:	635a      	str	r2, [r3, #52]	; 0x34
 8001c06:	46bd      	mov	sp, r7
 8001c08:	b002      	add	sp, #8
 8001c0a:	bd80      	pop	{r7, pc}
 8001c0c:	40012c00 	.word	0x40012c00
 8001c10:	40000400 	.word	0x40000400
 8001c14:	40002000 	.word	0x40002000
 8001c18:	40014000 	.word	0x40014000
 8001c1c:	40014400 	.word	0x40014400
 8001c20:	40014800 	.word	0x40014800
 8001c24:	08003a1c 	.word	0x08003a1c
 8001c28:	00000462 	.word	0x00000462

08001c2c <TIM_SetCompare2>:
 8001c2c:	b580      	push	{r7, lr}
 8001c2e:	b082      	sub	sp, #8
 8001c30:	af00      	add	r7, sp, #0
 8001c32:	6078      	str	r0, [r7, #4]
 8001c34:	6039      	str	r1, [r7, #0]
 8001c36:	687a      	ldr	r2, [r7, #4]
 8001c38:	4b0d      	ldr	r3, [pc, #52]	; (8001c70 <TIM_SetCompare2+0x44>)
 8001c3a:	429a      	cmp	r2, r3
 8001c3c:	d012      	beq.n	8001c64 <TIM_SetCompare2+0x38>
 8001c3e:	687a      	ldr	r2, [r7, #4]
 8001c40:	2380      	movs	r3, #128	; 0x80
 8001c42:	05db      	lsls	r3, r3, #23
 8001c44:	429a      	cmp	r2, r3
 8001c46:	d00d      	beq.n	8001c64 <TIM_SetCompare2+0x38>
 8001c48:	687a      	ldr	r2, [r7, #4]
 8001c4a:	4b0a      	ldr	r3, [pc, #40]	; (8001c74 <TIM_SetCompare2+0x48>)
 8001c4c:	429a      	cmp	r2, r3
 8001c4e:	d009      	beq.n	8001c64 <TIM_SetCompare2+0x38>
 8001c50:	687a      	ldr	r2, [r7, #4]
 8001c52:	4b09      	ldr	r3, [pc, #36]	; (8001c78 <TIM_SetCompare2+0x4c>)
 8001c54:	429a      	cmp	r2, r3
 8001c56:	d005      	beq.n	8001c64 <TIM_SetCompare2+0x38>
 8001c58:	4a08      	ldr	r2, [pc, #32]	; (8001c7c <TIM_SetCompare2+0x50>)
 8001c5a:	4b09      	ldr	r3, [pc, #36]	; (8001c80 <TIM_SetCompare2+0x54>)
 8001c5c:	1c10      	adds	r0, r2, #0
 8001c5e:	1c19      	adds	r1, r3, #0
 8001c60:	f000 fd4a 	bl	80026f8 <assert_failed>
 8001c64:	687b      	ldr	r3, [r7, #4]
 8001c66:	683a      	ldr	r2, [r7, #0]
 8001c68:	639a      	str	r2, [r3, #56]	; 0x38
 8001c6a:	46bd      	mov	sp, r7
 8001c6c:	b002      	add	sp, #8
 8001c6e:	bd80      	pop	{r7, pc}
 8001c70:	40012c00 	.word	0x40012c00
 8001c74:	40000400 	.word	0x40000400
 8001c78:	40014000 	.word	0x40014000
 8001c7c:	08003a1c 	.word	0x08003a1c
 8001c80:	00000471 	.word	0x00000471

08001c84 <TIM_SetCompare3>:
 8001c84:	b580      	push	{r7, lr}
 8001c86:	b082      	sub	sp, #8
 8001c88:	af00      	add	r7, sp, #0
 8001c8a:	6078      	str	r0, [r7, #4]
 8001c8c:	6039      	str	r1, [r7, #0]
 8001c8e:	687a      	ldr	r2, [r7, #4]
 8001c90:	4b0c      	ldr	r3, [pc, #48]	; (8001cc4 <TIM_SetCompare3+0x40>)
 8001c92:	429a      	cmp	r2, r3
 8001c94:	d00f      	beq.n	8001cb6 <TIM_SetCompare3+0x32>
 8001c96:	687a      	ldr	r2, [r7, #4]
 8001c98:	2380      	movs	r3, #128	; 0x80
 8001c9a:	05db      	lsls	r3, r3, #23
 8001c9c:	429a      	cmp	r2, r3
 8001c9e:	d00a      	beq.n	8001cb6 <TIM_SetCompare3+0x32>
 8001ca0:	687a      	ldr	r2, [r7, #4]
 8001ca2:	4b09      	ldr	r3, [pc, #36]	; (8001cc8 <TIM_SetCompare3+0x44>)
 8001ca4:	429a      	cmp	r2, r3
 8001ca6:	d006      	beq.n	8001cb6 <TIM_SetCompare3+0x32>
 8001ca8:	4a08      	ldr	r2, [pc, #32]	; (8001ccc <TIM_SetCompare3+0x48>)
 8001caa:	2390      	movs	r3, #144	; 0x90
 8001cac:	00db      	lsls	r3, r3, #3
 8001cae:	1c10      	adds	r0, r2, #0
 8001cb0:	1c19      	adds	r1, r3, #0
 8001cb2:	f000 fd21 	bl	80026f8 <assert_failed>
 8001cb6:	687b      	ldr	r3, [r7, #4]
 8001cb8:	683a      	ldr	r2, [r7, #0]
 8001cba:	63da      	str	r2, [r3, #60]	; 0x3c
 8001cbc:	46bd      	mov	sp, r7
 8001cbe:	b002      	add	sp, #8
 8001cc0:	bd80      	pop	{r7, pc}
 8001cc2:	46c0      	nop			; (mov r8, r8)
 8001cc4:	40012c00 	.word	0x40012c00
 8001cc8:	40000400 	.word	0x40000400
 8001ccc:	08003a1c 	.word	0x08003a1c

08001cd0 <TIM_OC1PreloadConfig>:
 8001cd0:	b580      	push	{r7, lr}
 8001cd2:	b084      	sub	sp, #16
 8001cd4:	af00      	add	r7, sp, #0
 8001cd6:	6078      	str	r0, [r7, #4]
 8001cd8:	1c0a      	adds	r2, r1, #0
 8001cda:	1cbb      	adds	r3, r7, #2
 8001cdc:	801a      	strh	r2, [r3, #0]
 8001cde:	1c3b      	adds	r3, r7, #0
 8001ce0:	330e      	adds	r3, #14
 8001ce2:	2200      	movs	r2, #0
 8001ce4:	801a      	strh	r2, [r3, #0]
 8001ce6:	687a      	ldr	r2, [r7, #4]
 8001ce8:	4b26      	ldr	r3, [pc, #152]	; (8001d84 <TIM_OC1PreloadConfig+0xb4>)
 8001cea:	429a      	cmp	r2, r3
 8001cec:	d01e      	beq.n	8001d2c <TIM_OC1PreloadConfig+0x5c>
 8001cee:	687a      	ldr	r2, [r7, #4]
 8001cf0:	2380      	movs	r3, #128	; 0x80
 8001cf2:	05db      	lsls	r3, r3, #23
 8001cf4:	429a      	cmp	r2, r3
 8001cf6:	d019      	beq.n	8001d2c <TIM_OC1PreloadConfig+0x5c>
 8001cf8:	687a      	ldr	r2, [r7, #4]
 8001cfa:	4b23      	ldr	r3, [pc, #140]	; (8001d88 <TIM_OC1PreloadConfig+0xb8>)
 8001cfc:	429a      	cmp	r2, r3
 8001cfe:	d015      	beq.n	8001d2c <TIM_OC1PreloadConfig+0x5c>
 8001d00:	687a      	ldr	r2, [r7, #4]
 8001d02:	4b22      	ldr	r3, [pc, #136]	; (8001d8c <TIM_OC1PreloadConfig+0xbc>)
 8001d04:	429a      	cmp	r2, r3
 8001d06:	d011      	beq.n	8001d2c <TIM_OC1PreloadConfig+0x5c>
 8001d08:	687a      	ldr	r2, [r7, #4]
 8001d0a:	4b21      	ldr	r3, [pc, #132]	; (8001d90 <TIM_OC1PreloadConfig+0xc0>)
 8001d0c:	429a      	cmp	r2, r3
 8001d0e:	d00d      	beq.n	8001d2c <TIM_OC1PreloadConfig+0x5c>
 8001d10:	687a      	ldr	r2, [r7, #4]
 8001d12:	4b20      	ldr	r3, [pc, #128]	; (8001d94 <TIM_OC1PreloadConfig+0xc4>)
 8001d14:	429a      	cmp	r2, r3
 8001d16:	d009      	beq.n	8001d2c <TIM_OC1PreloadConfig+0x5c>
 8001d18:	687a      	ldr	r2, [r7, #4]
 8001d1a:	4b1f      	ldr	r3, [pc, #124]	; (8001d98 <TIM_OC1PreloadConfig+0xc8>)
 8001d1c:	429a      	cmp	r2, r3
 8001d1e:	d005      	beq.n	8001d2c <TIM_OC1PreloadConfig+0x5c>
 8001d20:	4a1e      	ldr	r2, [pc, #120]	; (8001d9c <TIM_OC1PreloadConfig+0xcc>)
 8001d22:	4b1f      	ldr	r3, [pc, #124]	; (8001da0 <TIM_OC1PreloadConfig+0xd0>)
 8001d24:	1c10      	adds	r0, r2, #0
 8001d26:	1c19      	adds	r1, r3, #0
 8001d28:	f000 fce6 	bl	80026f8 <assert_failed>
 8001d2c:	1cbb      	adds	r3, r7, #2
 8001d2e:	881b      	ldrh	r3, [r3, #0]
 8001d30:	2b08      	cmp	r3, #8
 8001d32:	d009      	beq.n	8001d48 <TIM_OC1PreloadConfig+0x78>
 8001d34:	1cbb      	adds	r3, r7, #2
 8001d36:	881b      	ldrh	r3, [r3, #0]
 8001d38:	2b00      	cmp	r3, #0
 8001d3a:	d005      	beq.n	8001d48 <TIM_OC1PreloadConfig+0x78>
 8001d3c:	4a17      	ldr	r2, [pc, #92]	; (8001d9c <TIM_OC1PreloadConfig+0xcc>)
 8001d3e:	4b19      	ldr	r3, [pc, #100]	; (8001da4 <TIM_OC1PreloadConfig+0xd4>)
 8001d40:	1c10      	adds	r0, r2, #0
 8001d42:	1c19      	adds	r1, r3, #0
 8001d44:	f000 fcd8 	bl	80026f8 <assert_failed>
 8001d48:	1c3b      	adds	r3, r7, #0
 8001d4a:	330e      	adds	r3, #14
 8001d4c:	687a      	ldr	r2, [r7, #4]
 8001d4e:	8b12      	ldrh	r2, [r2, #24]
 8001d50:	801a      	strh	r2, [r3, #0]
 8001d52:	1c3b      	adds	r3, r7, #0
 8001d54:	330e      	adds	r3, #14
 8001d56:	1c3a      	adds	r2, r7, #0
 8001d58:	320e      	adds	r2, #14
 8001d5a:	8812      	ldrh	r2, [r2, #0]
 8001d5c:	2108      	movs	r1, #8
 8001d5e:	438a      	bics	r2, r1
 8001d60:	801a      	strh	r2, [r3, #0]
 8001d62:	1c3b      	adds	r3, r7, #0
 8001d64:	330e      	adds	r3, #14
 8001d66:	1c39      	adds	r1, r7, #0
 8001d68:	310e      	adds	r1, #14
 8001d6a:	1cba      	adds	r2, r7, #2
 8001d6c:	8809      	ldrh	r1, [r1, #0]
 8001d6e:	8812      	ldrh	r2, [r2, #0]
 8001d70:	430a      	orrs	r2, r1
 8001d72:	801a      	strh	r2, [r3, #0]
 8001d74:	687b      	ldr	r3, [r7, #4]
 8001d76:	1c3a      	adds	r2, r7, #0
 8001d78:	320e      	adds	r2, #14
 8001d7a:	8812      	ldrh	r2, [r2, #0]
 8001d7c:	831a      	strh	r2, [r3, #24]
 8001d7e:	46bd      	mov	sp, r7
 8001d80:	b004      	add	sp, #16
 8001d82:	bd80      	pop	{r7, pc}
 8001d84:	40012c00 	.word	0x40012c00
 8001d88:	40000400 	.word	0x40000400
 8001d8c:	40002000 	.word	0x40002000
 8001d90:	40014000 	.word	0x40014000
 8001d94:	40014400 	.word	0x40014400
 8001d98:	40014800 	.word	0x40014800
 8001d9c:	08003a1c 	.word	0x08003a1c
 8001da0:	00000522 	.word	0x00000522
 8001da4:	00000523 	.word	0x00000523

08001da8 <DMA_GetITStatus>:
 8001da8:	b580      	push	{r7, lr}
 8001daa:	b084      	sub	sp, #16
 8001dac:	af00      	add	r7, sp, #0
 8001dae:	6078      	str	r0, [r7, #4]
 8001db0:	1c3b      	adds	r3, r7, #0
 8001db2:	330f      	adds	r3, #15
 8001db4:	2200      	movs	r2, #0
 8001db6:	701a      	strb	r2, [r3, #0]
 8001db8:	687b      	ldr	r3, [r7, #4]
 8001dba:	2b01      	cmp	r3, #1
 8001dbc:	d056      	beq.n	8001e6c <DMA_GetITStatus+0xc4>
 8001dbe:	687b      	ldr	r3, [r7, #4]
 8001dc0:	2b02      	cmp	r3, #2
 8001dc2:	d053      	beq.n	8001e6c <DMA_GetITStatus+0xc4>
 8001dc4:	687b      	ldr	r3, [r7, #4]
 8001dc6:	2b04      	cmp	r3, #4
 8001dc8:	d050      	beq.n	8001e6c <DMA_GetITStatus+0xc4>
 8001dca:	687b      	ldr	r3, [r7, #4]
 8001dcc:	2b08      	cmp	r3, #8
 8001dce:	d04d      	beq.n	8001e6c <DMA_GetITStatus+0xc4>
 8001dd0:	687b      	ldr	r3, [r7, #4]
 8001dd2:	2b10      	cmp	r3, #16
 8001dd4:	d04a      	beq.n	8001e6c <DMA_GetITStatus+0xc4>
 8001dd6:	687b      	ldr	r3, [r7, #4]
 8001dd8:	2b20      	cmp	r3, #32
 8001dda:	d047      	beq.n	8001e6c <DMA_GetITStatus+0xc4>
 8001ddc:	687b      	ldr	r3, [r7, #4]
 8001dde:	2b40      	cmp	r3, #64	; 0x40
 8001de0:	d044      	beq.n	8001e6c <DMA_GetITStatus+0xc4>
 8001de2:	687b      	ldr	r3, [r7, #4]
 8001de4:	2b80      	cmp	r3, #128	; 0x80
 8001de6:	d041      	beq.n	8001e6c <DMA_GetITStatus+0xc4>
 8001de8:	687a      	ldr	r2, [r7, #4]
 8001dea:	2380      	movs	r3, #128	; 0x80
 8001dec:	005b      	lsls	r3, r3, #1
 8001dee:	429a      	cmp	r2, r3
 8001df0:	d03c      	beq.n	8001e6c <DMA_GetITStatus+0xc4>
 8001df2:	687a      	ldr	r2, [r7, #4]
 8001df4:	2380      	movs	r3, #128	; 0x80
 8001df6:	009b      	lsls	r3, r3, #2
 8001df8:	429a      	cmp	r2, r3
 8001dfa:	d037      	beq.n	8001e6c <DMA_GetITStatus+0xc4>
 8001dfc:	687a      	ldr	r2, [r7, #4]
 8001dfe:	2380      	movs	r3, #128	; 0x80
 8001e00:	00db      	lsls	r3, r3, #3
 8001e02:	429a      	cmp	r2, r3
 8001e04:	d032      	beq.n	8001e6c <DMA_GetITStatus+0xc4>
 8001e06:	687a      	ldr	r2, [r7, #4]
 8001e08:	2380      	movs	r3, #128	; 0x80
 8001e0a:	011b      	lsls	r3, r3, #4
 8001e0c:	429a      	cmp	r2, r3
 8001e0e:	d02d      	beq.n	8001e6c <DMA_GetITStatus+0xc4>
 8001e10:	687a      	ldr	r2, [r7, #4]
 8001e12:	2380      	movs	r3, #128	; 0x80
 8001e14:	015b      	lsls	r3, r3, #5
 8001e16:	429a      	cmp	r2, r3
 8001e18:	d028      	beq.n	8001e6c <DMA_GetITStatus+0xc4>
 8001e1a:	687a      	ldr	r2, [r7, #4]
 8001e1c:	2380      	movs	r3, #128	; 0x80
 8001e1e:	019b      	lsls	r3, r3, #6
 8001e20:	429a      	cmp	r2, r3
 8001e22:	d023      	beq.n	8001e6c <DMA_GetITStatus+0xc4>
 8001e24:	687a      	ldr	r2, [r7, #4]
 8001e26:	2380      	movs	r3, #128	; 0x80
 8001e28:	01db      	lsls	r3, r3, #7
 8001e2a:	429a      	cmp	r2, r3
 8001e2c:	d01e      	beq.n	8001e6c <DMA_GetITStatus+0xc4>
 8001e2e:	687a      	ldr	r2, [r7, #4]
 8001e30:	2380      	movs	r3, #128	; 0x80
 8001e32:	021b      	lsls	r3, r3, #8
 8001e34:	429a      	cmp	r2, r3
 8001e36:	d019      	beq.n	8001e6c <DMA_GetITStatus+0xc4>
 8001e38:	687a      	ldr	r2, [r7, #4]
 8001e3a:	2380      	movs	r3, #128	; 0x80
 8001e3c:	025b      	lsls	r3, r3, #9
 8001e3e:	429a      	cmp	r2, r3
 8001e40:	d014      	beq.n	8001e6c <DMA_GetITStatus+0xc4>
 8001e42:	687a      	ldr	r2, [r7, #4]
 8001e44:	2380      	movs	r3, #128	; 0x80
 8001e46:	029b      	lsls	r3, r3, #10
 8001e48:	429a      	cmp	r2, r3
 8001e4a:	d00f      	beq.n	8001e6c <DMA_GetITStatus+0xc4>
 8001e4c:	687a      	ldr	r2, [r7, #4]
 8001e4e:	2380      	movs	r3, #128	; 0x80
 8001e50:	02db      	lsls	r3, r3, #11
 8001e52:	429a      	cmp	r2, r3
 8001e54:	d00a      	beq.n	8001e6c <DMA_GetITStatus+0xc4>
 8001e56:	687a      	ldr	r2, [r7, #4]
 8001e58:	2380      	movs	r3, #128	; 0x80
 8001e5a:	031b      	lsls	r3, r3, #12
 8001e5c:	429a      	cmp	r2, r3
 8001e5e:	d005      	beq.n	8001e6c <DMA_GetITStatus+0xc4>
 8001e60:	4a0d      	ldr	r2, [pc, #52]	; (8001e98 <DMA_GetITStatus+0xf0>)
 8001e62:	4b0e      	ldr	r3, [pc, #56]	; (8001e9c <DMA_GetITStatus+0xf4>)
 8001e64:	1c10      	adds	r0, r2, #0
 8001e66:	1c19      	adds	r1, r3, #0
 8001e68:	f000 fc46 	bl	80026f8 <assert_failed>
 8001e6c:	4b0c      	ldr	r3, [pc, #48]	; (8001ea0 <DMA_GetITStatus+0xf8>)
 8001e6e:	681b      	ldr	r3, [r3, #0]
 8001e70:	687a      	ldr	r2, [r7, #4]
 8001e72:	4013      	ands	r3, r2
 8001e74:	d004      	beq.n	8001e80 <DMA_GetITStatus+0xd8>
 8001e76:	1c3b      	adds	r3, r7, #0
 8001e78:	330f      	adds	r3, #15
 8001e7a:	2201      	movs	r2, #1
 8001e7c:	701a      	strb	r2, [r3, #0]
 8001e7e:	e003      	b.n	8001e88 <DMA_GetITStatus+0xe0>
 8001e80:	1c3b      	adds	r3, r7, #0
 8001e82:	330f      	adds	r3, #15
 8001e84:	2200      	movs	r2, #0
 8001e86:	701a      	strb	r2, [r3, #0]
 8001e88:	1c3b      	adds	r3, r7, #0
 8001e8a:	330f      	adds	r3, #15
 8001e8c:	781b      	ldrb	r3, [r3, #0]
 8001e8e:	1c18      	adds	r0, r3, #0
 8001e90:	46bd      	mov	sp, r7
 8001e92:	b004      	add	sp, #16
 8001e94:	bd80      	pop	{r7, pc}
 8001e96:	46c0      	nop			; (mov r8, r8)
 8001e98:	08003a5c 	.word	0x08003a5c
 8001e9c:	00000249 	.word	0x00000249
 8001ea0:	40020000 	.word	0x40020000

08001ea4 <DMA_ClearITPendingBit>:
 8001ea4:	b580      	push	{r7, lr}
 8001ea6:	b082      	sub	sp, #8
 8001ea8:	af00      	add	r7, sp, #0
 8001eaa:	6078      	str	r0, [r7, #4]
 8001eac:	687b      	ldr	r3, [r7, #4]
 8001eae:	0d1b      	lsrs	r3, r3, #20
 8001eb0:	051b      	lsls	r3, r3, #20
 8001eb2:	d102      	bne.n	8001eba <DMA_ClearITPendingBit+0x16>
 8001eb4:	687b      	ldr	r3, [r7, #4]
 8001eb6:	2b00      	cmp	r3, #0
 8001eb8:	d105      	bne.n	8001ec6 <DMA_ClearITPendingBit+0x22>
 8001eba:	4a06      	ldr	r2, [pc, #24]	; (8001ed4 <DMA_ClearITPendingBit+0x30>)
 8001ebc:	4b06      	ldr	r3, [pc, #24]	; (8001ed8 <DMA_ClearITPendingBit+0x34>)
 8001ebe:	1c10      	adds	r0, r2, #0
 8001ec0:	1c19      	adds	r1, r3, #0
 8001ec2:	f000 fc19 	bl	80026f8 <assert_failed>
 8001ec6:	4b05      	ldr	r3, [pc, #20]	; (8001edc <DMA_ClearITPendingBit+0x38>)
 8001ec8:	687a      	ldr	r2, [r7, #4]
 8001eca:	605a      	str	r2, [r3, #4]
 8001ecc:	46bd      	mov	sp, r7
 8001ece:	b002      	add	sp, #8
 8001ed0:	bd80      	pop	{r7, pc}
 8001ed2:	46c0      	nop			; (mov r8, r8)
 8001ed4:	08003a5c 	.word	0x08003a5c
 8001ed8:	0000027e 	.word	0x0000027e
 8001edc:	40020000 	.word	0x40020000

08001ee0 <USART_Init>:
 8001ee0:	b580      	push	{r7, lr}
 8001ee2:	b08e      	sub	sp, #56	; 0x38
 8001ee4:	af00      	add	r7, sp, #0
 8001ee6:	6078      	str	r0, [r7, #4]
 8001ee8:	6039      	str	r1, [r7, #0]
 8001eea:	2300      	movs	r3, #0
 8001eec:	637b      	str	r3, [r7, #52]	; 0x34
 8001eee:	2300      	movs	r3, #0
 8001ef0:	633b      	str	r3, [r7, #48]	; 0x30
 8001ef2:	2300      	movs	r3, #0
 8001ef4:	62fb      	str	r3, [r7, #44]	; 0x2c
 8001ef6:	2300      	movs	r3, #0
 8001ef8:	62bb      	str	r3, [r7, #40]	; 0x28
 8001efa:	687a      	ldr	r2, [r7, #4]
 8001efc:	4b93      	ldr	r3, [pc, #588]	; (800214c <USART_Init+0x26c>)
 8001efe:	429a      	cmp	r2, r3
 8001f00:	d008      	beq.n	8001f14 <USART_Init+0x34>
 8001f02:	687a      	ldr	r2, [r7, #4]
 8001f04:	4b92      	ldr	r3, [pc, #584]	; (8002150 <USART_Init+0x270>)
 8001f06:	429a      	cmp	r2, r3
 8001f08:	d004      	beq.n	8001f14 <USART_Init+0x34>
 8001f0a:	4b92      	ldr	r3, [pc, #584]	; (8002154 <USART_Init+0x274>)
 8001f0c:	1c18      	adds	r0, r3, #0
 8001f0e:	21d0      	movs	r1, #208	; 0xd0
 8001f10:	f000 fbf2 	bl	80026f8 <assert_failed>
 8001f14:	683b      	ldr	r3, [r7, #0]
 8001f16:	681b      	ldr	r3, [r3, #0]
 8001f18:	2b00      	cmp	r3, #0
 8001f1a:	d004      	beq.n	8001f26 <USART_Init+0x46>
 8001f1c:	683b      	ldr	r3, [r7, #0]
 8001f1e:	681a      	ldr	r2, [r3, #0]
 8001f20:	4b8d      	ldr	r3, [pc, #564]	; (8002158 <USART_Init+0x278>)
 8001f22:	429a      	cmp	r2, r3
 8001f24:	d904      	bls.n	8001f30 <USART_Init+0x50>
 8001f26:	4b8b      	ldr	r3, [pc, #556]	; (8002154 <USART_Init+0x274>)
 8001f28:	1c18      	adds	r0, r3, #0
 8001f2a:	21d1      	movs	r1, #209	; 0xd1
 8001f2c:	f000 fbe4 	bl	80026f8 <assert_failed>
 8001f30:	683b      	ldr	r3, [r7, #0]
 8001f32:	685b      	ldr	r3, [r3, #4]
 8001f34:	2b00      	cmp	r3, #0
 8001f36:	d00a      	beq.n	8001f4e <USART_Init+0x6e>
 8001f38:	683b      	ldr	r3, [r7, #0]
 8001f3a:	685a      	ldr	r2, [r3, #4]
 8001f3c:	2380      	movs	r3, #128	; 0x80
 8001f3e:	015b      	lsls	r3, r3, #5
 8001f40:	429a      	cmp	r2, r3
 8001f42:	d004      	beq.n	8001f4e <USART_Init+0x6e>
 8001f44:	4b83      	ldr	r3, [pc, #524]	; (8002154 <USART_Init+0x274>)
 8001f46:	1c18      	adds	r0, r3, #0
 8001f48:	21d2      	movs	r1, #210	; 0xd2
 8001f4a:	f000 fbd5 	bl	80026f8 <assert_failed>
 8001f4e:	683b      	ldr	r3, [r7, #0]
 8001f50:	689b      	ldr	r3, [r3, #8]
 8001f52:	2b00      	cmp	r3, #0
 8001f54:	d010      	beq.n	8001f78 <USART_Init+0x98>
 8001f56:	683b      	ldr	r3, [r7, #0]
 8001f58:	689a      	ldr	r2, [r3, #8]
 8001f5a:	2380      	movs	r3, #128	; 0x80
 8001f5c:	019b      	lsls	r3, r3, #6
 8001f5e:	429a      	cmp	r2, r3
 8001f60:	d00a      	beq.n	8001f78 <USART_Init+0x98>
 8001f62:	683b      	ldr	r3, [r7, #0]
 8001f64:	689a      	ldr	r2, [r3, #8]
 8001f66:	23c0      	movs	r3, #192	; 0xc0
 8001f68:	019b      	lsls	r3, r3, #6
 8001f6a:	429a      	cmp	r2, r3
 8001f6c:	d004      	beq.n	8001f78 <USART_Init+0x98>
 8001f6e:	4b79      	ldr	r3, [pc, #484]	; (8002154 <USART_Init+0x274>)
 8001f70:	1c18      	adds	r0, r3, #0
 8001f72:	21d3      	movs	r1, #211	; 0xd3
 8001f74:	f000 fbc0 	bl	80026f8 <assert_failed>
 8001f78:	683b      	ldr	r3, [r7, #0]
 8001f7a:	68db      	ldr	r3, [r3, #12]
 8001f7c:	2b00      	cmp	r3, #0
 8001f7e:	d010      	beq.n	8001fa2 <USART_Init+0xc2>
 8001f80:	683b      	ldr	r3, [r7, #0]
 8001f82:	68da      	ldr	r2, [r3, #12]
 8001f84:	2380      	movs	r3, #128	; 0x80
 8001f86:	00db      	lsls	r3, r3, #3
 8001f88:	429a      	cmp	r2, r3
 8001f8a:	d00a      	beq.n	8001fa2 <USART_Init+0xc2>
 8001f8c:	683b      	ldr	r3, [r7, #0]
 8001f8e:	68da      	ldr	r2, [r3, #12]
 8001f90:	23c0      	movs	r3, #192	; 0xc0
 8001f92:	00db      	lsls	r3, r3, #3
 8001f94:	429a      	cmp	r2, r3
 8001f96:	d004      	beq.n	8001fa2 <USART_Init+0xc2>
 8001f98:	4b6e      	ldr	r3, [pc, #440]	; (8002154 <USART_Init+0x274>)
 8001f9a:	1c18      	adds	r0, r3, #0
 8001f9c:	21d4      	movs	r1, #212	; 0xd4
 8001f9e:	f000 fbab 	bl	80026f8 <assert_failed>
 8001fa2:	683b      	ldr	r3, [r7, #0]
 8001fa4:	691b      	ldr	r3, [r3, #16]
 8001fa6:	220c      	movs	r2, #12
 8001fa8:	4393      	bics	r3, r2
 8001faa:	d103      	bne.n	8001fb4 <USART_Init+0xd4>
 8001fac:	683b      	ldr	r3, [r7, #0]
 8001fae:	691b      	ldr	r3, [r3, #16]
 8001fb0:	2b00      	cmp	r3, #0
 8001fb2:	d104      	bne.n	8001fbe <USART_Init+0xde>
 8001fb4:	4b67      	ldr	r3, [pc, #412]	; (8002154 <USART_Init+0x274>)
 8001fb6:	1c18      	adds	r0, r3, #0
 8001fb8:	21d5      	movs	r1, #213	; 0xd5
 8001fba:	f000 fb9d 	bl	80026f8 <assert_failed>
 8001fbe:	683b      	ldr	r3, [r7, #0]
 8001fc0:	695b      	ldr	r3, [r3, #20]
 8001fc2:	2b00      	cmp	r3, #0
 8001fc4:	d016      	beq.n	8001ff4 <USART_Init+0x114>
 8001fc6:	683b      	ldr	r3, [r7, #0]
 8001fc8:	695a      	ldr	r2, [r3, #20]
 8001fca:	2380      	movs	r3, #128	; 0x80
 8001fcc:	005b      	lsls	r3, r3, #1
 8001fce:	429a      	cmp	r2, r3
 8001fd0:	d010      	beq.n	8001ff4 <USART_Init+0x114>
 8001fd2:	683b      	ldr	r3, [r7, #0]
 8001fd4:	695a      	ldr	r2, [r3, #20]
 8001fd6:	2380      	movs	r3, #128	; 0x80
 8001fd8:	009b      	lsls	r3, r3, #2
 8001fda:	429a      	cmp	r2, r3
 8001fdc:	d00a      	beq.n	8001ff4 <USART_Init+0x114>
 8001fde:	683b      	ldr	r3, [r7, #0]
 8001fe0:	695a      	ldr	r2, [r3, #20]
 8001fe2:	23c0      	movs	r3, #192	; 0xc0
 8001fe4:	009b      	lsls	r3, r3, #2
 8001fe6:	429a      	cmp	r2, r3
 8001fe8:	d004      	beq.n	8001ff4 <USART_Init+0x114>
 8001fea:	4b5a      	ldr	r3, [pc, #360]	; (8002154 <USART_Init+0x274>)
 8001fec:	1c18      	adds	r0, r3, #0
 8001fee:	21d6      	movs	r1, #214	; 0xd6
 8001ff0:	f000 fb82 	bl	80026f8 <assert_failed>
 8001ff4:	687b      	ldr	r3, [r7, #4]
 8001ff6:	681b      	ldr	r3, [r3, #0]
 8001ff8:	2201      	movs	r2, #1
 8001ffa:	1c19      	adds	r1, r3, #0
 8001ffc:	4391      	bics	r1, r2
 8001ffe:	1c0a      	adds	r2, r1, #0
 8002000:	687b      	ldr	r3, [r7, #4]
 8002002:	601a      	str	r2, [r3, #0]
 8002004:	687b      	ldr	r3, [r7, #4]
 8002006:	685b      	ldr	r3, [r3, #4]
 8002008:	637b      	str	r3, [r7, #52]	; 0x34
 800200a:	6b7a      	ldr	r2, [r7, #52]	; 0x34
 800200c:	4b53      	ldr	r3, [pc, #332]	; (800215c <USART_Init+0x27c>)
 800200e:	4013      	ands	r3, r2
 8002010:	637b      	str	r3, [r7, #52]	; 0x34
 8002012:	683b      	ldr	r3, [r7, #0]
 8002014:	689b      	ldr	r3, [r3, #8]
 8002016:	6b7a      	ldr	r2, [r7, #52]	; 0x34
 8002018:	4313      	orrs	r3, r2
 800201a:	637b      	str	r3, [r7, #52]	; 0x34
 800201c:	687b      	ldr	r3, [r7, #4]
 800201e:	6b7a      	ldr	r2, [r7, #52]	; 0x34
 8002020:	605a      	str	r2, [r3, #4]
 8002022:	687b      	ldr	r3, [r7, #4]
 8002024:	681b      	ldr	r3, [r3, #0]
 8002026:	637b      	str	r3, [r7, #52]	; 0x34
 8002028:	6b7a      	ldr	r2, [r7, #52]	; 0x34
 800202a:	4b4d      	ldr	r3, [pc, #308]	; (8002160 <USART_Init+0x280>)
 800202c:	4013      	ands	r3, r2
 800202e:	637b      	str	r3, [r7, #52]	; 0x34
 8002030:	683b      	ldr	r3, [r7, #0]
 8002032:	685a      	ldr	r2, [r3, #4]
 8002034:	683b      	ldr	r3, [r7, #0]
 8002036:	68db      	ldr	r3, [r3, #12]
 8002038:	431a      	orrs	r2, r3
 800203a:	683b      	ldr	r3, [r7, #0]
 800203c:	691b      	ldr	r3, [r3, #16]
 800203e:	4313      	orrs	r3, r2
 8002040:	6b7a      	ldr	r2, [r7, #52]	; 0x34
 8002042:	4313      	orrs	r3, r2
 8002044:	637b      	str	r3, [r7, #52]	; 0x34
 8002046:	687b      	ldr	r3, [r7, #4]
 8002048:	6b7a      	ldr	r2, [r7, #52]	; 0x34
 800204a:	601a      	str	r2, [r3, #0]
 800204c:	687b      	ldr	r3, [r7, #4]
 800204e:	689b      	ldr	r3, [r3, #8]
 8002050:	637b      	str	r3, [r7, #52]	; 0x34
 8002052:	6b7a      	ldr	r2, [r7, #52]	; 0x34
 8002054:	4b43      	ldr	r3, [pc, #268]	; (8002164 <USART_Init+0x284>)
 8002056:	4013      	ands	r3, r2
 8002058:	637b      	str	r3, [r7, #52]	; 0x34
 800205a:	683b      	ldr	r3, [r7, #0]
 800205c:	695b      	ldr	r3, [r3, #20]
 800205e:	6b7a      	ldr	r2, [r7, #52]	; 0x34
 8002060:	4313      	orrs	r3, r2
 8002062:	637b      	str	r3, [r7, #52]	; 0x34
 8002064:	687b      	ldr	r3, [r7, #4]
 8002066:	6b7a      	ldr	r2, [r7, #52]	; 0x34
 8002068:	609a      	str	r2, [r3, #8]
 800206a:	1c3b      	adds	r3, r7, #0
 800206c:	330c      	adds	r3, #12
 800206e:	1c18      	adds	r0, r3, #0
 8002070:	f7fe f954 	bl	800031c <RCC_GetClocksFreq>
 8002074:	687a      	ldr	r2, [r7, #4]
 8002076:	4b35      	ldr	r3, [pc, #212]	; (800214c <USART_Init+0x26c>)
 8002078:	429a      	cmp	r2, r3
 800207a:	d104      	bne.n	8002086 <USART_Init+0x1a6>
 800207c:	1c3b      	adds	r3, r7, #0
 800207e:	330c      	adds	r3, #12
 8002080:	699b      	ldr	r3, [r3, #24]
 8002082:	633b      	str	r3, [r7, #48]	; 0x30
 8002084:	e003      	b.n	800208e <USART_Init+0x1ae>
 8002086:	1c3b      	adds	r3, r7, #0
 8002088:	330c      	adds	r3, #12
 800208a:	689b      	ldr	r3, [r3, #8]
 800208c:	633b      	str	r3, [r7, #48]	; 0x30
 800208e:	687b      	ldr	r3, [r7, #4]
 8002090:	681a      	ldr	r2, [r3, #0]
 8002092:	2380      	movs	r3, #128	; 0x80
 8002094:	021b      	lsls	r3, r3, #8
 8002096:	4013      	ands	r3, r2
 8002098:	d00f      	beq.n	80020ba <USART_Init+0x1da>
 800209a:	6b3a      	ldr	r2, [r7, #48]	; 0x30
 800209c:	1c13      	adds	r3, r2, #0
 800209e:	009b      	lsls	r3, r3, #2
 80020a0:	189b      	adds	r3, r3, r2
 80020a2:	009a      	lsls	r2, r3, #2
 80020a4:	189a      	adds	r2, r3, r2
 80020a6:	683b      	ldr	r3, [r7, #0]
 80020a8:	681b      	ldr	r3, [r3, #0]
 80020aa:	005b      	lsls	r3, r3, #1
 80020ac:	1c10      	adds	r0, r2, #0
 80020ae:	1c19      	adds	r1, r3, #0
 80020b0:	f7fe f808 	bl	80000c4 <__aeabi_uidiv>
 80020b4:	1c03      	adds	r3, r0, #0
 80020b6:	62fb      	str	r3, [r7, #44]	; 0x2c
 80020b8:	e00e      	b.n	80020d8 <USART_Init+0x1f8>
 80020ba:	6b3a      	ldr	r2, [r7, #48]	; 0x30
 80020bc:	1c13      	adds	r3, r2, #0
 80020be:	009b      	lsls	r3, r3, #2
 80020c0:	189b      	adds	r3, r3, r2
 80020c2:	009a      	lsls	r2, r3, #2
 80020c4:	189a      	adds	r2, r3, r2
 80020c6:	683b      	ldr	r3, [r7, #0]
 80020c8:	681b      	ldr	r3, [r3, #0]
 80020ca:	009b      	lsls	r3, r3, #2
 80020cc:	1c10      	adds	r0, r2, #0
 80020ce:	1c19      	adds	r1, r3, #0
 80020d0:	f7fd fff8 	bl	80000c4 <__aeabi_uidiv>
 80020d4:	1c03      	adds	r3, r0, #0
 80020d6:	62fb      	str	r3, [r7, #44]	; 0x2c
 80020d8:	6afb      	ldr	r3, [r7, #44]	; 0x2c
 80020da:	1c18      	adds	r0, r3, #0
 80020dc:	2164      	movs	r1, #100	; 0x64
 80020de:	f7fd fff1 	bl	80000c4 <__aeabi_uidiv>
 80020e2:	1c03      	adds	r3, r0, #0
 80020e4:	011b      	lsls	r3, r3, #4
 80020e6:	637b      	str	r3, [r7, #52]	; 0x34
 80020e8:	6b7b      	ldr	r3, [r7, #52]	; 0x34
 80020ea:	091b      	lsrs	r3, r3, #4
 80020ec:	2264      	movs	r2, #100	; 0x64
 80020ee:	4353      	muls	r3, r2
 80020f0:	6afa      	ldr	r2, [r7, #44]	; 0x2c
 80020f2:	1ad3      	subs	r3, r2, r3
 80020f4:	62bb      	str	r3, [r7, #40]	; 0x28
 80020f6:	687b      	ldr	r3, [r7, #4]
 80020f8:	681a      	ldr	r2, [r3, #0]
 80020fa:	2380      	movs	r3, #128	; 0x80
 80020fc:	021b      	lsls	r3, r3, #8
 80020fe:	4013      	ands	r3, r2
 8002100:	d00e      	beq.n	8002120 <USART_Init+0x240>
 8002102:	6abb      	ldr	r3, [r7, #40]	; 0x28
 8002104:	00db      	lsls	r3, r3, #3
 8002106:	3332      	adds	r3, #50	; 0x32
 8002108:	1c18      	adds	r0, r3, #0
 800210a:	2164      	movs	r1, #100	; 0x64
 800210c:	f7fd ffda 	bl	80000c4 <__aeabi_uidiv>
 8002110:	1c03      	adds	r3, r0, #0
 8002112:	1c1a      	adds	r2, r3, #0
 8002114:	2307      	movs	r3, #7
 8002116:	4013      	ands	r3, r2
 8002118:	6b7a      	ldr	r2, [r7, #52]	; 0x34
 800211a:	4313      	orrs	r3, r2
 800211c:	637b      	str	r3, [r7, #52]	; 0x34
 800211e:	e00d      	b.n	800213c <USART_Init+0x25c>
 8002120:	6abb      	ldr	r3, [r7, #40]	; 0x28
 8002122:	011b      	lsls	r3, r3, #4
 8002124:	3332      	adds	r3, #50	; 0x32
 8002126:	1c18      	adds	r0, r3, #0
 8002128:	2164      	movs	r1, #100	; 0x64
 800212a:	f7fd ffcb 	bl	80000c4 <__aeabi_uidiv>
 800212e:	1c03      	adds	r3, r0, #0
 8002130:	1c1a      	adds	r2, r3, #0
 8002132:	230f      	movs	r3, #15
 8002134:	4013      	ands	r3, r2
 8002136:	6b7a      	ldr	r2, [r7, #52]	; 0x34
 8002138:	4313      	orrs	r3, r2
 800213a:	637b      	str	r3, [r7, #52]	; 0x34
 800213c:	6b7b      	ldr	r3, [r7, #52]	; 0x34
 800213e:	b29a      	uxth	r2, r3
 8002140:	687b      	ldr	r3, [r7, #4]
 8002142:	819a      	strh	r2, [r3, #12]
 8002144:	46bd      	mov	sp, r7
 8002146:	b00e      	add	sp, #56	; 0x38
 8002148:	bd80      	pop	{r7, pc}
 800214a:	46c0      	nop			; (mov r8, r8)
 800214c:	40013800 	.word	0x40013800
 8002150:	40004400 	.word	0x40004400
 8002154:	08003a9c 	.word	0x08003a9c
 8002158:	005b8d80 	.word	0x005b8d80
 800215c:	ffffcfff 	.word	0xffffcfff
 8002160:	ffffe9f3 	.word	0xffffe9f3
 8002164:	fffffcff 	.word	0xfffffcff

08002168 <USART_Cmd>:
 8002168:	b580      	push	{r7, lr}
 800216a:	b082      	sub	sp, #8
 800216c:	af00      	add	r7, sp, #0
 800216e:	6078      	str	r0, [r7, #4]
 8002170:	1c0a      	adds	r2, r1, #0
 8002172:	1cfb      	adds	r3, r7, #3
 8002174:	701a      	strb	r2, [r3, #0]
 8002176:	687a      	ldr	r2, [r7, #4]
 8002178:	4b19      	ldr	r3, [pc, #100]	; (80021e0 <USART_Cmd+0x78>)
 800217a:	429a      	cmp	r2, r3
 800217c:	d00a      	beq.n	8002194 <USART_Cmd+0x2c>
 800217e:	687a      	ldr	r2, [r7, #4]
 8002180:	4b18      	ldr	r3, [pc, #96]	; (80021e4 <USART_Cmd+0x7c>)
 8002182:	429a      	cmp	r2, r3
 8002184:	d006      	beq.n	8002194 <USART_Cmd+0x2c>
 8002186:	4a18      	ldr	r2, [pc, #96]	; (80021e8 <USART_Cmd+0x80>)
 8002188:	2378      	movs	r3, #120	; 0x78
 800218a:	33ff      	adds	r3, #255	; 0xff
 800218c:	1c10      	adds	r0, r2, #0
 800218e:	1c19      	adds	r1, r3, #0
 8002190:	f000 fab2 	bl	80026f8 <assert_failed>
 8002194:	1cfb      	adds	r3, r7, #3
 8002196:	781b      	ldrb	r3, [r3, #0]
 8002198:	2b00      	cmp	r3, #0
 800219a:	d00a      	beq.n	80021b2 <USART_Cmd+0x4a>
 800219c:	1cfb      	adds	r3, r7, #3
 800219e:	781b      	ldrb	r3, [r3, #0]
 80021a0:	2b01      	cmp	r3, #1
 80021a2:	d006      	beq.n	80021b2 <USART_Cmd+0x4a>
 80021a4:	4a10      	ldr	r2, [pc, #64]	; (80021e8 <USART_Cmd+0x80>)
 80021a6:	23bc      	movs	r3, #188	; 0xbc
 80021a8:	005b      	lsls	r3, r3, #1
 80021aa:	1c10      	adds	r0, r2, #0
 80021ac:	1c19      	adds	r1, r3, #0
 80021ae:	f000 faa3 	bl	80026f8 <assert_failed>
 80021b2:	1cfb      	adds	r3, r7, #3
 80021b4:	781b      	ldrb	r3, [r3, #0]
 80021b6:	2b00      	cmp	r3, #0
 80021b8:	d006      	beq.n	80021c8 <USART_Cmd+0x60>
 80021ba:	687b      	ldr	r3, [r7, #4]
 80021bc:	681b      	ldr	r3, [r3, #0]
 80021be:	2201      	movs	r2, #1
 80021c0:	431a      	orrs	r2, r3
 80021c2:	687b      	ldr	r3, [r7, #4]
 80021c4:	601a      	str	r2, [r3, #0]
 80021c6:	e007      	b.n	80021d8 <USART_Cmd+0x70>
 80021c8:	687b      	ldr	r3, [r7, #4]
 80021ca:	681b      	ldr	r3, [r3, #0]
 80021cc:	2201      	movs	r2, #1
 80021ce:	1c19      	adds	r1, r3, #0
 80021d0:	4391      	bics	r1, r2
 80021d2:	1c0a      	adds	r2, r1, #0
 80021d4:	687b      	ldr	r3, [r7, #4]
 80021d6:	601a      	str	r2, [r3, #0]
 80021d8:	46bd      	mov	sp, r7
 80021da:	b002      	add	sp, #8
 80021dc:	bd80      	pop	{r7, pc}
 80021de:	46c0      	nop			; (mov r8, r8)
 80021e0:	40013800 	.word	0x40013800
 80021e4:	40004400 	.word	0x40004400
 80021e8:	08003a9c 	.word	0x08003a9c

080021ec <USART_SendData>:
 80021ec:	b580      	push	{r7, lr}
 80021ee:	b082      	sub	sp, #8
 80021f0:	af00      	add	r7, sp, #0
 80021f2:	6078      	str	r0, [r7, #4]
 80021f4:	1c0a      	adds	r2, r1, #0
 80021f6:	1cbb      	adds	r3, r7, #2
 80021f8:	801a      	strh	r2, [r3, #0]
 80021fa:	687a      	ldr	r2, [r7, #4]
 80021fc:	4b11      	ldr	r3, [pc, #68]	; (8002244 <USART_SendData+0x58>)
 80021fe:	429a      	cmp	r2, r3
 8002200:	d00a      	beq.n	8002218 <USART_SendData+0x2c>
 8002202:	687a      	ldr	r2, [r7, #4]
 8002204:	4b10      	ldr	r3, [pc, #64]	; (8002248 <USART_SendData+0x5c>)
 8002206:	429a      	cmp	r2, r3
 8002208:	d006      	beq.n	8002218 <USART_SendData+0x2c>
 800220a:	4a10      	ldr	r2, [pc, #64]	; (800224c <USART_SendData+0x60>)
 800220c:	23dc      	movs	r3, #220	; 0xdc
 800220e:	009b      	lsls	r3, r3, #2
 8002210:	1c10      	adds	r0, r2, #0
 8002212:	1c19      	adds	r1, r3, #0
 8002214:	f000 fa70 	bl	80026f8 <assert_failed>
 8002218:	1cbb      	adds	r3, r7, #2
 800221a:	881a      	ldrh	r2, [r3, #0]
 800221c:	4b0c      	ldr	r3, [pc, #48]	; (8002250 <USART_SendData+0x64>)
 800221e:	429a      	cmp	r2, r3
 8002220:	d905      	bls.n	800222e <USART_SendData+0x42>
 8002222:	4a0a      	ldr	r2, [pc, #40]	; (800224c <USART_SendData+0x60>)
 8002224:	4b0b      	ldr	r3, [pc, #44]	; (8002254 <USART_SendData+0x68>)
 8002226:	1c10      	adds	r0, r2, #0
 8002228:	1c19      	adds	r1, r3, #0
 800222a:	f000 fa65 	bl	80026f8 <assert_failed>
 800222e:	1cbb      	adds	r3, r7, #2
 8002230:	881b      	ldrh	r3, [r3, #0]
 8002232:	05db      	lsls	r3, r3, #23
 8002234:	0ddb      	lsrs	r3, r3, #23
 8002236:	b29a      	uxth	r2, r3
 8002238:	687b      	ldr	r3, [r7, #4]
 800223a:	851a      	strh	r2, [r3, #40]	; 0x28
 800223c:	46bd      	mov	sp, r7
 800223e:	b002      	add	sp, #8
 8002240:	bd80      	pop	{r7, pc}
 8002242:	46c0      	nop			; (mov r8, r8)
 8002244:	40013800 	.word	0x40013800
 8002248:	40004400 	.word	0x40004400
 800224c:	08003a9c 	.word	0x08003a9c
 8002250:	000001ff 	.word	0x000001ff
 8002254:	00000371 	.word	0x00000371

08002258 <USART_ITConfig>:
 8002258:	b580      	push	{r7, lr}
 800225a:	b088      	sub	sp, #32
 800225c:	af00      	add	r7, sp, #0
 800225e:	60f8      	str	r0, [r7, #12]
 8002260:	60b9      	str	r1, [r7, #8]
 8002262:	1dfb      	adds	r3, r7, #7
 8002264:	701a      	strb	r2, [r3, #0]
 8002266:	2300      	movs	r3, #0
 8002268:	61bb      	str	r3, [r7, #24]
 800226a:	2300      	movs	r3, #0
 800226c:	617b      	str	r3, [r7, #20]
 800226e:	2300      	movs	r3, #0
 8002270:	613b      	str	r3, [r7, #16]
 8002272:	2300      	movs	r3, #0
 8002274:	61fb      	str	r3, [r7, #28]
 8002276:	68fa      	ldr	r2, [r7, #12]
 8002278:	4b42      	ldr	r3, [pc, #264]	; (8002384 <USART_ITConfig+0x12c>)
 800227a:	429a      	cmp	r2, r3
 800227c:	d009      	beq.n	8002292 <USART_ITConfig+0x3a>
 800227e:	68fa      	ldr	r2, [r7, #12]
 8002280:	4b41      	ldr	r3, [pc, #260]	; (8002388 <USART_ITConfig+0x130>)
 8002282:	429a      	cmp	r2, r3
 8002284:	d005      	beq.n	8002292 <USART_ITConfig+0x3a>
 8002286:	4a41      	ldr	r2, [pc, #260]	; (800238c <USART_ITConfig+0x134>)
 8002288:	4b41      	ldr	r3, [pc, #260]	; (8002390 <USART_ITConfig+0x138>)
 800228a:	1c10      	adds	r0, r2, #0
 800228c:	1c19      	adds	r1, r3, #0
 800228e:	f000 fa33 	bl	80026f8 <assert_failed>
 8002292:	68ba      	ldr	r2, [r7, #8]
 8002294:	2384      	movs	r3, #132	; 0x84
 8002296:	005b      	lsls	r3, r3, #1
 8002298:	429a      	cmp	r2, r3
 800229a:	d032      	beq.n	8002302 <USART_ITConfig+0xaa>
 800229c:	68ba      	ldr	r2, [r7, #8]
 800229e:	4b3d      	ldr	r3, [pc, #244]	; (8002394 <USART_ITConfig+0x13c>)
 80022a0:	429a      	cmp	r2, r3
 80022a2:	d02e      	beq.n	8002302 <USART_ITConfig+0xaa>
 80022a4:	68ba      	ldr	r2, [r7, #8]
 80022a6:	4b3c      	ldr	r3, [pc, #240]	; (8002398 <USART_ITConfig+0x140>)
 80022a8:	429a      	cmp	r2, r3
 80022aa:	d02a      	beq.n	8002302 <USART_ITConfig+0xaa>
 80022ac:	68ba      	ldr	r2, [r7, #8]
 80022ae:	4b3b      	ldr	r3, [pc, #236]	; (800239c <USART_ITConfig+0x144>)
 80022b0:	429a      	cmp	r2, r3
 80022b2:	d026      	beq.n	8002302 <USART_ITConfig+0xaa>
 80022b4:	68ba      	ldr	r2, [r7, #8]
 80022b6:	4b3a      	ldr	r3, [pc, #232]	; (80023a0 <USART_ITConfig+0x148>)
 80022b8:	429a      	cmp	r2, r3
 80022ba:	d022      	beq.n	8002302 <USART_ITConfig+0xaa>
 80022bc:	68ba      	ldr	r2, [r7, #8]
 80022be:	4b39      	ldr	r3, [pc, #228]	; (80023a4 <USART_ITConfig+0x14c>)
 80022c0:	429a      	cmp	r2, r3
 80022c2:	d01e      	beq.n	8002302 <USART_ITConfig+0xaa>
 80022c4:	68ba      	ldr	r2, [r7, #8]
 80022c6:	4b38      	ldr	r3, [pc, #224]	; (80023a8 <USART_ITConfig+0x150>)
 80022c8:	429a      	cmp	r2, r3
 80022ca:	d01a      	beq.n	8002302 <USART_ITConfig+0xaa>
 80022cc:	68ba      	ldr	r2, [r7, #8]
 80022ce:	23c0      	movs	r3, #192	; 0xc0
 80022d0:	009b      	lsls	r3, r3, #2
 80022d2:	429a      	cmp	r2, r3
 80022d4:	d015      	beq.n	8002302 <USART_ITConfig+0xaa>
 80022d6:	68ba      	ldr	r2, [r7, #8]
 80022d8:	4b34      	ldr	r3, [pc, #208]	; (80023ac <USART_ITConfig+0x154>)
 80022da:	429a      	cmp	r2, r3
 80022dc:	d011      	beq.n	8002302 <USART_ITConfig+0xaa>
 80022de:	68ba      	ldr	r2, [r7, #8]
 80022e0:	4b33      	ldr	r3, [pc, #204]	; (80023b0 <USART_ITConfig+0x158>)
 80022e2:	429a      	cmp	r2, r3
 80022e4:	d00d      	beq.n	8002302 <USART_ITConfig+0xaa>
 80022e6:	68ba      	ldr	r2, [r7, #8]
 80022e8:	4b32      	ldr	r3, [pc, #200]	; (80023b4 <USART_ITConfig+0x15c>)
 80022ea:	429a      	cmp	r2, r3
 80022ec:	d009      	beq.n	8002302 <USART_ITConfig+0xaa>
 80022ee:	68ba      	ldr	r2, [r7, #8]
 80022f0:	4b31      	ldr	r3, [pc, #196]	; (80023b8 <USART_ITConfig+0x160>)
 80022f2:	429a      	cmp	r2, r3
 80022f4:	d005      	beq.n	8002302 <USART_ITConfig+0xaa>
 80022f6:	4a25      	ldr	r2, [pc, #148]	; (800238c <USART_ITConfig+0x134>)
 80022f8:	4b30      	ldr	r3, [pc, #192]	; (80023bc <USART_ITConfig+0x164>)
 80022fa:	1c10      	adds	r0, r2, #0
 80022fc:	1c19      	adds	r1, r3, #0
 80022fe:	f000 f9fb 	bl	80026f8 <assert_failed>
 8002302:	1dfb      	adds	r3, r7, #7
 8002304:	781b      	ldrb	r3, [r3, #0]
 8002306:	2b00      	cmp	r3, #0
 8002308:	d009      	beq.n	800231e <USART_ITConfig+0xc6>
 800230a:	1dfb      	adds	r3, r7, #7
 800230c:	781b      	ldrb	r3, [r3, #0]
 800230e:	2b01      	cmp	r3, #1
 8002310:	d005      	beq.n	800231e <USART_ITConfig+0xc6>
 8002312:	4a1e      	ldr	r2, [pc, #120]	; (800238c <USART_ITConfig+0x134>)
 8002314:	4b2a      	ldr	r3, [pc, #168]	; (80023c0 <USART_ITConfig+0x168>)
 8002316:	1c10      	adds	r0, r2, #0
 8002318:	1c19      	adds	r1, r3, #0
 800231a:	f000 f9ed 	bl	80026f8 <assert_failed>
 800231e:	68fb      	ldr	r3, [r7, #12]
 8002320:	61fb      	str	r3, [r7, #28]
 8002322:	68bb      	ldr	r3, [r7, #8]
 8002324:	b29b      	uxth	r3, r3
 8002326:	0a1b      	lsrs	r3, r3, #8
 8002328:	b29b      	uxth	r3, r3
 800232a:	61bb      	str	r3, [r7, #24]
 800232c:	68ba      	ldr	r2, [r7, #8]
 800232e:	23ff      	movs	r3, #255	; 0xff
 8002330:	4013      	ands	r3, r2
 8002332:	617b      	str	r3, [r7, #20]
 8002334:	697b      	ldr	r3, [r7, #20]
 8002336:	2201      	movs	r2, #1
 8002338:	1c11      	adds	r1, r2, #0
 800233a:	4099      	lsls	r1, r3
 800233c:	1c0b      	adds	r3, r1, #0
 800233e:	613b      	str	r3, [r7, #16]
 8002340:	69bb      	ldr	r3, [r7, #24]
 8002342:	2b02      	cmp	r3, #2
 8002344:	d103      	bne.n	800234e <USART_ITConfig+0xf6>
 8002346:	69fb      	ldr	r3, [r7, #28]
 8002348:	3304      	adds	r3, #4
 800234a:	61fb      	str	r3, [r7, #28]
 800234c:	e005      	b.n	800235a <USART_ITConfig+0x102>
 800234e:	69bb      	ldr	r3, [r7, #24]
 8002350:	2b03      	cmp	r3, #3
 8002352:	d102      	bne.n	800235a <USART_ITConfig+0x102>
 8002354:	69fb      	ldr	r3, [r7, #28]
 8002356:	3308      	adds	r3, #8
 8002358:	61fb      	str	r3, [r7, #28]
 800235a:	1dfb      	adds	r3, r7, #7
 800235c:	781b      	ldrb	r3, [r3, #0]
 800235e:	2b00      	cmp	r3, #0
 8002360:	d006      	beq.n	8002370 <USART_ITConfig+0x118>
 8002362:	69fb      	ldr	r3, [r7, #28]
 8002364:	69fa      	ldr	r2, [r7, #28]
 8002366:	6811      	ldr	r1, [r2, #0]
 8002368:	693a      	ldr	r2, [r7, #16]
 800236a:	430a      	orrs	r2, r1
 800236c:	601a      	str	r2, [r3, #0]
 800236e:	e006      	b.n	800237e <USART_ITConfig+0x126>
 8002370:	69fb      	ldr	r3, [r7, #28]
 8002372:	69fa      	ldr	r2, [r7, #28]
 8002374:	6812      	ldr	r2, [r2, #0]
 8002376:	6939      	ldr	r1, [r7, #16]
 8002378:	43c9      	mvns	r1, r1
 800237a:	400a      	ands	r2, r1
 800237c:	601a      	str	r2, [r3, #0]
 800237e:	46bd      	mov	sp, r7
 8002380:	b008      	add	sp, #32
 8002382:	bd80      	pop	{r7, pc}
 8002384:	40013800 	.word	0x40013800
 8002388:	40004400 	.word	0x40004400
 800238c:	08003a9c 	.word	0x08003a9c
 8002390:	000006b4 	.word	0x000006b4
 8002394:	00070107 	.word	0x00070107
 8002398:	00060106 	.word	0x00060106
 800239c:	00050105 	.word	0x00050105
 80023a0:	00040104 	.word	0x00040104
 80023a4:	00080206 	.word	0x00080206
 80023a8:	0009030a 	.word	0x0009030a
 80023ac:	000b011a 	.word	0x000b011a
 80023b0:	000c011b 	.word	0x000c011b
 80023b4:	0011010e 	.word	0x0011010e
 80023b8:	00140316 	.word	0x00140316
 80023bc:	000006b5 	.word	0x000006b5
 80023c0:	000006b6 	.word	0x000006b6

080023c4 <USART_GetFlagStatus>:
 80023c4:	b580      	push	{r7, lr}
 80023c6:	b084      	sub	sp, #16
 80023c8:	af00      	add	r7, sp, #0
 80023ca:	6078      	str	r0, [r7, #4]
 80023cc:	6039      	str	r1, [r7, #0]
 80023ce:	1c3b      	adds	r3, r7, #0
 80023d0:	330f      	adds	r3, #15
 80023d2:	2200      	movs	r2, #0
 80023d4:	701a      	strb	r2, [r3, #0]
 80023d6:	687a      	ldr	r2, [r7, #4]
 80023d8:	4b44      	ldr	r3, [pc, #272]	; (80024ec <USART_GetFlagStatus+0x128>)
 80023da:	429a      	cmp	r2, r3
 80023dc:	d009      	beq.n	80023f2 <USART_GetFlagStatus+0x2e>
 80023de:	687a      	ldr	r2, [r7, #4]
 80023e0:	4b43      	ldr	r3, [pc, #268]	; (80024f0 <USART_GetFlagStatus+0x12c>)
 80023e2:	429a      	cmp	r2, r3
 80023e4:	d005      	beq.n	80023f2 <USART_GetFlagStatus+0x2e>
 80023e6:	4a43      	ldr	r2, [pc, #268]	; (80024f4 <USART_GetFlagStatus+0x130>)
 80023e8:	4b43      	ldr	r3, [pc, #268]	; (80024f8 <USART_GetFlagStatus+0x134>)
 80023ea:	1c10      	adds	r0, r2, #0
 80023ec:	1c19      	adds	r1, r3, #0
 80023ee:	f000 f983 	bl	80026f8 <assert_failed>
 80023f2:	683b      	ldr	r3, [r7, #0]
 80023f4:	2b01      	cmp	r3, #1
 80023f6:	d100      	bne.n	80023fa <USART_GetFlagStatus+0x36>
 80023f8:	e062      	b.n	80024c0 <USART_GetFlagStatus+0xfc>
 80023fa:	683b      	ldr	r3, [r7, #0]
 80023fc:	2b80      	cmp	r3, #128	; 0x80
 80023fe:	d100      	bne.n	8002402 <USART_GetFlagStatus+0x3e>
 8002400:	e05e      	b.n	80024c0 <USART_GetFlagStatus+0xfc>
 8002402:	683b      	ldr	r3, [r7, #0]
 8002404:	2b40      	cmp	r3, #64	; 0x40
 8002406:	d100      	bne.n	800240a <USART_GetFlagStatus+0x46>
 8002408:	e05a      	b.n	80024c0 <USART_GetFlagStatus+0xfc>
 800240a:	683b      	ldr	r3, [r7, #0]
 800240c:	2b20      	cmp	r3, #32
 800240e:	d057      	beq.n	80024c0 <USART_GetFlagStatus+0xfc>
 8002410:	683b      	ldr	r3, [r7, #0]
 8002412:	2b10      	cmp	r3, #16
 8002414:	d054      	beq.n	80024c0 <USART_GetFlagStatus+0xfc>
 8002416:	683a      	ldr	r2, [r7, #0]
 8002418:	2380      	movs	r3, #128	; 0x80
 800241a:	005b      	lsls	r3, r3, #1
 800241c:	429a      	cmp	r2, r3
 800241e:	d04f      	beq.n	80024c0 <USART_GetFlagStatus+0xfc>
 8002420:	683a      	ldr	r2, [r7, #0]
 8002422:	2380      	movs	r3, #128	; 0x80
 8002424:	009b      	lsls	r3, r3, #2
 8002426:	429a      	cmp	r2, r3
 8002428:	d04a      	beq.n	80024c0 <USART_GetFlagStatus+0xfc>
 800242a:	683b      	ldr	r3, [r7, #0]
 800242c:	2b08      	cmp	r3, #8
 800242e:	d047      	beq.n	80024c0 <USART_GetFlagStatus+0xfc>
 8002430:	683b      	ldr	r3, [r7, #0]
 8002432:	2b04      	cmp	r3, #4
 8002434:	d044      	beq.n	80024c0 <USART_GetFlagStatus+0xfc>
 8002436:	683b      	ldr	r3, [r7, #0]
 8002438:	2b02      	cmp	r3, #2
 800243a:	d041      	beq.n	80024c0 <USART_GetFlagStatus+0xfc>
 800243c:	683a      	ldr	r2, [r7, #0]
 800243e:	2380      	movs	r3, #128	; 0x80
 8002440:	00db      	lsls	r3, r3, #3
 8002442:	429a      	cmp	r2, r3
 8002444:	d03c      	beq.n	80024c0 <USART_GetFlagStatus+0xfc>
 8002446:	683a      	ldr	r2, [r7, #0]
 8002448:	2380      	movs	r3, #128	; 0x80
 800244a:	011b      	lsls	r3, r3, #4
 800244c:	429a      	cmp	r2, r3
 800244e:	d037      	beq.n	80024c0 <USART_GetFlagStatus+0xfc>
 8002450:	683a      	ldr	r2, [r7, #0]
 8002452:	2380      	movs	r3, #128	; 0x80
 8002454:	015b      	lsls	r3, r3, #5
 8002456:	429a      	cmp	r2, r3
 8002458:	d032      	beq.n	80024c0 <USART_GetFlagStatus+0xfc>
 800245a:	683a      	ldr	r2, [r7, #0]
 800245c:	2380      	movs	r3, #128	; 0x80
 800245e:	01db      	lsls	r3, r3, #7
 8002460:	429a      	cmp	r2, r3
 8002462:	d02d      	beq.n	80024c0 <USART_GetFlagStatus+0xfc>
 8002464:	683a      	ldr	r2, [r7, #0]
 8002466:	2380      	movs	r3, #128	; 0x80
 8002468:	021b      	lsls	r3, r3, #8
 800246a:	429a      	cmp	r2, r3
 800246c:	d028      	beq.n	80024c0 <USART_GetFlagStatus+0xfc>
 800246e:	683a      	ldr	r2, [r7, #0]
 8002470:	2380      	movs	r3, #128	; 0x80
 8002472:	025b      	lsls	r3, r3, #9
 8002474:	429a      	cmp	r2, r3
 8002476:	d023      	beq.n	80024c0 <USART_GetFlagStatus+0xfc>
 8002478:	683a      	ldr	r2, [r7, #0]
 800247a:	2380      	movs	r3, #128	; 0x80
 800247c:	029b      	lsls	r3, r3, #10
 800247e:	429a      	cmp	r2, r3
 8002480:	d01e      	beq.n	80024c0 <USART_GetFlagStatus+0xfc>
 8002482:	683a      	ldr	r2, [r7, #0]
 8002484:	2380      	movs	r3, #128	; 0x80
 8002486:	02db      	lsls	r3, r3, #11
 8002488:	429a      	cmp	r2, r3
 800248a:	d019      	beq.n	80024c0 <USART_GetFlagStatus+0xfc>
 800248c:	683a      	ldr	r2, [r7, #0]
 800248e:	2380      	movs	r3, #128	; 0x80
 8002490:	031b      	lsls	r3, r3, #12
 8002492:	429a      	cmp	r2, r3
 8002494:	d014      	beq.n	80024c0 <USART_GetFlagStatus+0xfc>
 8002496:	683a      	ldr	r2, [r7, #0]
 8002498:	2380      	movs	r3, #128	; 0x80
 800249a:	035b      	lsls	r3, r3, #13
 800249c:	429a      	cmp	r2, r3
 800249e:	d00f      	beq.n	80024c0 <USART_GetFlagStatus+0xfc>
 80024a0:	683a      	ldr	r2, [r7, #0]
 80024a2:	2380      	movs	r3, #128	; 0x80
 80024a4:	039b      	lsls	r3, r3, #14
 80024a6:	429a      	cmp	r2, r3
 80024a8:	d00a      	beq.n	80024c0 <USART_GetFlagStatus+0xfc>
 80024aa:	683a      	ldr	r2, [r7, #0]
 80024ac:	2380      	movs	r3, #128	; 0x80
 80024ae:	03db      	lsls	r3, r3, #15
 80024b0:	429a      	cmp	r2, r3
 80024b2:	d005      	beq.n	80024c0 <USART_GetFlagStatus+0xfc>
 80024b4:	4a0f      	ldr	r2, [pc, #60]	; (80024f4 <USART_GetFlagStatus+0x130>)
 80024b6:	4b11      	ldr	r3, [pc, #68]	; (80024fc <USART_GetFlagStatus+0x138>)
 80024b8:	1c10      	adds	r0, r2, #0
 80024ba:	1c19      	adds	r1, r3, #0
 80024bc:	f000 f91c 	bl	80026f8 <assert_failed>
 80024c0:	687b      	ldr	r3, [r7, #4]
 80024c2:	69db      	ldr	r3, [r3, #28]
 80024c4:	683a      	ldr	r2, [r7, #0]
 80024c6:	4013      	ands	r3, r2
 80024c8:	d004      	beq.n	80024d4 <USART_GetFlagStatus+0x110>
 80024ca:	1c3b      	adds	r3, r7, #0
 80024cc:	330f      	adds	r3, #15
 80024ce:	2201      	movs	r2, #1
 80024d0:	701a      	strb	r2, [r3, #0]
 80024d2:	e003      	b.n	80024dc <USART_GetFlagStatus+0x118>
 80024d4:	1c3b      	adds	r3, r7, #0
 80024d6:	330f      	adds	r3, #15
 80024d8:	2200      	movs	r2, #0
 80024da:	701a      	strb	r2, [r3, #0]
 80024dc:	1c3b      	adds	r3, r7, #0
 80024de:	330f      	adds	r3, #15
 80024e0:	781b      	ldrb	r3, [r3, #0]
 80024e2:	1c18      	adds	r0, r3, #0
 80024e4:	46bd      	mov	sp, r7
 80024e6:	b004      	add	sp, #16
 80024e8:	bd80      	pop	{r7, pc}
 80024ea:	46c0      	nop			; (mov r8, r8)
 80024ec:	40013800 	.word	0x40013800
 80024f0:	40004400 	.word	0x40004400
 80024f4:	08003a9c 	.word	0x08003a9c
 80024f8:	00000731 	.word	0x00000731
 80024fc:	00000732 	.word	0x00000732

08002500 <USART_ClearFlag>:
 8002500:	b580      	push	{r7, lr}
 8002502:	b082      	sub	sp, #8
 8002504:	af00      	add	r7, sp, #0
 8002506:	6078      	str	r0, [r7, #4]
 8002508:	6039      	str	r1, [r7, #0]
 800250a:	687a      	ldr	r2, [r7, #4]
 800250c:	4b09      	ldr	r3, [pc, #36]	; (8002534 <USART_ClearFlag+0x34>)
 800250e:	429a      	cmp	r2, r3
 8002510:	d00a      	beq.n	8002528 <USART_ClearFlag+0x28>
 8002512:	687a      	ldr	r2, [r7, #4]
 8002514:	4b08      	ldr	r3, [pc, #32]	; (8002538 <USART_ClearFlag+0x38>)
 8002516:	429a      	cmp	r2, r3
 8002518:	d006      	beq.n	8002528 <USART_ClearFlag+0x28>
 800251a:	4a08      	ldr	r2, [pc, #32]	; (800253c <USART_ClearFlag+0x3c>)
 800251c:	23ec      	movs	r3, #236	; 0xec
 800251e:	00db      	lsls	r3, r3, #3
 8002520:	1c10      	adds	r0, r2, #0
 8002522:	1c19      	adds	r1, r3, #0
 8002524:	f000 f8e8 	bl	80026f8 <assert_failed>
 8002528:	687b      	ldr	r3, [r7, #4]
 800252a:	683a      	ldr	r2, [r7, #0]
 800252c:	621a      	str	r2, [r3, #32]
 800252e:	46bd      	mov	sp, r7
 8002530:	b002      	add	sp, #8
 8002532:	bd80      	pop	{r7, pc}
 8002534:	40013800 	.word	0x40013800
 8002538:	40004400 	.word	0x40004400
 800253c:	08003a9c 	.word	0x08003a9c

08002540 <USART_GetITStatus>:
 8002540:	b580      	push	{r7, lr}
 8002542:	b086      	sub	sp, #24
 8002544:	af00      	add	r7, sp, #0
 8002546:	6078      	str	r0, [r7, #4]
 8002548:	6039      	str	r1, [r7, #0]
 800254a:	2300      	movs	r3, #0
 800254c:	60fb      	str	r3, [r7, #12]
 800254e:	2300      	movs	r3, #0
 8002550:	617b      	str	r3, [r7, #20]
 8002552:	2300      	movs	r3, #0
 8002554:	60bb      	str	r3, [r7, #8]
 8002556:	1c3b      	adds	r3, r7, #0
 8002558:	3313      	adds	r3, #19
 800255a:	2200      	movs	r2, #0
 800255c:	701a      	strb	r2, [r3, #0]
 800255e:	687a      	ldr	r2, [r7, #4]
 8002560:	4b4b      	ldr	r3, [pc, #300]	; (8002690 <USART_GetITStatus+0x150>)
 8002562:	429a      	cmp	r2, r3
 8002564:	d00a      	beq.n	800257c <USART_GetITStatus+0x3c>
 8002566:	687a      	ldr	r2, [r7, #4]
 8002568:	4b4a      	ldr	r3, [pc, #296]	; (8002694 <USART_GetITStatus+0x154>)
 800256a:	429a      	cmp	r2, r3
 800256c:	d006      	beq.n	800257c <USART_GetITStatus+0x3c>
 800256e:	4a4a      	ldr	r2, [pc, #296]	; (8002698 <USART_GetITStatus+0x158>)
 8002570:	23f0      	movs	r3, #240	; 0xf0
 8002572:	00db      	lsls	r3, r3, #3
 8002574:	1c10      	adds	r0, r2, #0
 8002576:	1c19      	adds	r1, r3, #0
 8002578:	f000 f8be 	bl	80026f8 <assert_failed>
 800257c:	683a      	ldr	r2, [r7, #0]
 800257e:	2384      	movs	r3, #132	; 0x84
 8002580:	005b      	lsls	r3, r3, #1
 8002582:	429a      	cmp	r2, r3
 8002584:	d039      	beq.n	80025fa <USART_GetITStatus+0xba>
 8002586:	683a      	ldr	r2, [r7, #0]
 8002588:	4b44      	ldr	r3, [pc, #272]	; (800269c <USART_GetITStatus+0x15c>)
 800258a:	429a      	cmp	r2, r3
 800258c:	d035      	beq.n	80025fa <USART_GetITStatus+0xba>
 800258e:	683a      	ldr	r2, [r7, #0]
 8002590:	4b43      	ldr	r3, [pc, #268]	; (80026a0 <USART_GetITStatus+0x160>)
 8002592:	429a      	cmp	r2, r3
 8002594:	d031      	beq.n	80025fa <USART_GetITStatus+0xba>
 8002596:	683a      	ldr	r2, [r7, #0]
 8002598:	4b42      	ldr	r3, [pc, #264]	; (80026a4 <USART_GetITStatus+0x164>)
 800259a:	429a      	cmp	r2, r3
 800259c:	d02d      	beq.n	80025fa <USART_GetITStatus+0xba>
 800259e:	683a      	ldr	r2, [r7, #0]
 80025a0:	4b41      	ldr	r3, [pc, #260]	; (80026a8 <USART_GetITStatus+0x168>)
 80025a2:	429a      	cmp	r2, r3
 80025a4:	d029      	beq.n	80025fa <USART_GetITStatus+0xba>
 80025a6:	683a      	ldr	r2, [r7, #0]
 80025a8:	4b40      	ldr	r3, [pc, #256]	; (80026ac <USART_GetITStatus+0x16c>)
 80025aa:	429a      	cmp	r2, r3
 80025ac:	d025      	beq.n	80025fa <USART_GetITStatus+0xba>
 80025ae:	683a      	ldr	r2, [r7, #0]
 80025b0:	4b3f      	ldr	r3, [pc, #252]	; (80026b0 <USART_GetITStatus+0x170>)
 80025b2:	429a      	cmp	r2, r3
 80025b4:	d021      	beq.n	80025fa <USART_GetITStatus+0xba>
 80025b6:	683a      	ldr	r2, [r7, #0]
 80025b8:	4b3e      	ldr	r3, [pc, #248]	; (80026b4 <USART_GetITStatus+0x174>)
 80025ba:	429a      	cmp	r2, r3
 80025bc:	d01d      	beq.n	80025fa <USART_GetITStatus+0xba>
 80025be:	683a      	ldr	r2, [r7, #0]
 80025c0:	4b3d      	ldr	r3, [pc, #244]	; (80026b8 <USART_GetITStatus+0x178>)
 80025c2:	429a      	cmp	r2, r3
 80025c4:	d019      	beq.n	80025fa <USART_GetITStatus+0xba>
 80025c6:	683a      	ldr	r2, [r7, #0]
 80025c8:	4b3c      	ldr	r3, [pc, #240]	; (80026bc <USART_GetITStatus+0x17c>)
 80025ca:	429a      	cmp	r2, r3
 80025cc:	d015      	beq.n	80025fa <USART_GetITStatus+0xba>
 80025ce:	683a      	ldr	r2, [r7, #0]
 80025d0:	4b3b      	ldr	r3, [pc, #236]	; (80026c0 <USART_GetITStatus+0x180>)
 80025d2:	429a      	cmp	r2, r3
 80025d4:	d011      	beq.n	80025fa <USART_GetITStatus+0xba>
 80025d6:	683a      	ldr	r2, [r7, #0]
 80025d8:	4b3a      	ldr	r3, [pc, #232]	; (80026c4 <USART_GetITStatus+0x184>)
 80025da:	429a      	cmp	r2, r3
 80025dc:	d00d      	beq.n	80025fa <USART_GetITStatus+0xba>
 80025de:	683a      	ldr	r2, [r7, #0]
 80025e0:	4b39      	ldr	r3, [pc, #228]	; (80026c8 <USART_GetITStatus+0x188>)
 80025e2:	429a      	cmp	r2, r3
 80025e4:	d009      	beq.n	80025fa <USART_GetITStatus+0xba>
 80025e6:	683a      	ldr	r2, [r7, #0]
 80025e8:	4b38      	ldr	r3, [pc, #224]	; (80026cc <USART_GetITStatus+0x18c>)
 80025ea:	429a      	cmp	r2, r3
 80025ec:	d005      	beq.n	80025fa <USART_GetITStatus+0xba>
 80025ee:	4a2a      	ldr	r2, [pc, #168]	; (8002698 <USART_GetITStatus+0x158>)
 80025f0:	4b37      	ldr	r3, [pc, #220]	; (80026d0 <USART_GetITStatus+0x190>)
 80025f2:	1c10      	adds	r0, r2, #0
 80025f4:	1c19      	adds	r1, r3, #0
 80025f6:	f000 f87f 	bl	80026f8 <assert_failed>
 80025fa:	683b      	ldr	r3, [r7, #0]
 80025fc:	b29b      	uxth	r3, r3
 80025fe:	0a1b      	lsrs	r3, r3, #8
 8002600:	b29b      	uxth	r3, r3
 8002602:	60bb      	str	r3, [r7, #8]
 8002604:	683a      	ldr	r2, [r7, #0]
 8002606:	23ff      	movs	r3, #255	; 0xff
 8002608:	4013      	ands	r3, r2
 800260a:	617b      	str	r3, [r7, #20]
 800260c:	697b      	ldr	r3, [r7, #20]
 800260e:	2201      	movs	r2, #1
 8002610:	1c11      	adds	r1, r2, #0
 8002612:	4099      	lsls	r1, r3
 8002614:	1c0b      	adds	r3, r1, #0
 8002616:	617b      	str	r3, [r7, #20]
 8002618:	68bb      	ldr	r3, [r7, #8]
 800261a:	2b01      	cmp	r3, #1
 800261c:	d105      	bne.n	800262a <USART_GetITStatus+0xea>
 800261e:	687b      	ldr	r3, [r7, #4]
 8002620:	681a      	ldr	r2, [r3, #0]
 8002622:	697b      	ldr	r3, [r7, #20]
 8002624:	4013      	ands	r3, r2
 8002626:	617b      	str	r3, [r7, #20]
 8002628:	e00d      	b.n	8002646 <USART_GetITStatus+0x106>
 800262a:	68bb      	ldr	r3, [r7, #8]
 800262c:	2b02      	cmp	r3, #2
 800262e:	d105      	bne.n	800263c <USART_GetITStatus+0xfc>
 8002630:	687b      	ldr	r3, [r7, #4]
 8002632:	685a      	ldr	r2, [r3, #4]
 8002634:	697b      	ldr	r3, [r7, #20]
 8002636:	4013      	ands	r3, r2
 8002638:	617b      	str	r3, [r7, #20]
 800263a:	e004      	b.n	8002646 <USART_GetITStatus+0x106>
 800263c:	687b      	ldr	r3, [r7, #4]
 800263e:	689a      	ldr	r2, [r3, #8]
 8002640:	697b      	ldr	r3, [r7, #20]
 8002642:	4013      	ands	r3, r2
 8002644:	617b      	str	r3, [r7, #20]
 8002646:	683b      	ldr	r3, [r7, #0]
 8002648:	0c1b      	lsrs	r3, r3, #16
 800264a:	60fb      	str	r3, [r7, #12]
 800264c:	68fb      	ldr	r3, [r7, #12]
 800264e:	2201      	movs	r2, #1
 8002650:	1c11      	adds	r1, r2, #0
 8002652:	4099      	lsls	r1, r3
 8002654:	1c0b      	adds	r3, r1, #0
 8002656:	60fb      	str	r3, [r7, #12]
 8002658:	687b      	ldr	r3, [r7, #4]
 800265a:	69da      	ldr	r2, [r3, #28]
 800265c:	68fb      	ldr	r3, [r7, #12]
 800265e:	4013      	ands	r3, r2
 8002660:	60fb      	str	r3, [r7, #12]
 8002662:	697b      	ldr	r3, [r7, #20]
 8002664:	2b00      	cmp	r3, #0
 8002666:	d007      	beq.n	8002678 <USART_GetITStatus+0x138>
 8002668:	68fb      	ldr	r3, [r7, #12]
 800266a:	2b00      	cmp	r3, #0
 800266c:	d004      	beq.n	8002678 <USART_GetITStatus+0x138>
 800266e:	1c3b      	adds	r3, r7, #0
 8002670:	3313      	adds	r3, #19
 8002672:	2201      	movs	r2, #1
 8002674:	701a      	strb	r2, [r3, #0]
 8002676:	e003      	b.n	8002680 <USART_GetITStatus+0x140>
 8002678:	1c3b      	adds	r3, r7, #0
 800267a:	3313      	adds	r3, #19
 800267c:	2200      	movs	r2, #0
 800267e:	701a      	strb	r2, [r3, #0]
 8002680:	1c3b      	adds	r3, r7, #0
 8002682:	3313      	adds	r3, #19
 8002684:	781b      	ldrb	r3, [r3, #0]
 8002686:	1c18      	adds	r0, r3, #0
 8002688:	46bd      	mov	sp, r7
 800268a:	b006      	add	sp, #24
 800268c:	bd80      	pop	{r7, pc}
 800268e:	46c0      	nop			; (mov r8, r8)
 8002690:	40013800 	.word	0x40013800
 8002694:	40004400 	.word	0x40004400
 8002698:	08003a9c 	.word	0x08003a9c
 800269c:	00070107 	.word	0x00070107
 80026a0:	00060106 	.word	0x00060106
 80026a4:	00050105 	.word	0x00050105
 80026a8:	00040104 	.word	0x00040104
 80026ac:	00080206 	.word	0x00080206
 80026b0:	0009030a 	.word	0x0009030a
 80026b4:	00030300 	.word	0x00030300
 80026b8:	00020300 	.word	0x00020300
 80026bc:	00010300 	.word	0x00010300
 80026c0:	000b011a 	.word	0x000b011a
 80026c4:	000c011b 	.word	0x000c011b
 80026c8:	0011010e 	.word	0x0011010e
 80026cc:	00140316 	.word	0x00140316
 80026d0:	00000781 	.word	0x00000781

080026d4 <main>:
 80026d4:	b580      	push	{r7, lr}
 80026d6:	af00      	add	r7, sp, #0
 80026d8:	f000 f8ba 	bl	8002850 <System_init>
 80026dc:	2001      	movs	r0, #1
 80026de:	f000 f8bb 	bl	8002858 <System_PITSetup>
 80026e2:	f000 fd6f 	bl	80031c4 <RecordingLight_init>
 80026e6:	4b03      	ldr	r3, [pc, #12]	; (80026f4 <main+0x20>)
 80026e8:	1c18      	adds	r0, r3, #0
 80026ea:	f000 f8d5 	bl	8002898 <System_PITSetTaskCallback>
 80026ee:	f000 f8df 	bl	80028b0 <System_PITStart>
 80026f2:	e7fe      	b.n	80026f2 <main+0x1e>
 80026f4:	080031f1 	.word	0x080031f1

080026f8 <assert_failed>:
 80026f8:	b580      	push	{r7, lr}
 80026fa:	b082      	sub	sp, #8
 80026fc:	af00      	add	r7, sp, #0
 80026fe:	6078      	str	r0, [r7, #4]
 8002700:	6039      	str	r1, [r7, #0]
 8002702:	e7fe      	b.n	8002702 <assert_failed+0xa>

08002704 <NMI_Handler>:
 8002704:	b580      	push	{r7, lr}
 8002706:	af00      	add	r7, sp, #0
 8002708:	46bd      	mov	sp, r7
 800270a:	bd80      	pop	{r7, pc}

0800270c <HardFault_Handler>:
 800270c:	b580      	push	{r7, lr}
 800270e:	af00      	add	r7, sp, #0
 8002710:	e7fe      	b.n	8002710 <HardFault_Handler+0x4>
 8002712:	46c0      	nop			; (mov r8, r8)

08002714 <SVC_Handler>:
 8002714:	b580      	push	{r7, lr}
 8002716:	af00      	add	r7, sp, #0
 8002718:	46bd      	mov	sp, r7
 800271a:	bd80      	pop	{r7, pc}

0800271c <PendSV_Handler>:
 800271c:	b580      	push	{r7, lr}
 800271e:	af00      	add	r7, sp, #0
 8002720:	46bd      	mov	sp, r7
 8002722:	bd80      	pop	{r7, pc}

08002724 <NVIC_SetPriority>:
 8002724:	b5b0      	push	{r4, r5, r7, lr}
 8002726:	b082      	sub	sp, #8
 8002728:	af00      	add	r7, sp, #0
 800272a:	1c02      	adds	r2, r0, #0
 800272c:	6039      	str	r1, [r7, #0]
 800272e:	1dfb      	adds	r3, r7, #7
 8002730:	701a      	strb	r2, [r3, #0]
 8002732:	1dfb      	adds	r3, r7, #7
 8002734:	781b      	ldrb	r3, [r3, #0]
 8002736:	2b7f      	cmp	r3, #127	; 0x7f
 8002738:	d932      	bls.n	80027a0 <NVIC_SetPriority+0x7c>
 800273a:	4930      	ldr	r1, [pc, #192]	; (80027fc <NVIC_SetPriority+0xd8>)
 800273c:	1dfb      	adds	r3, r7, #7
 800273e:	781b      	ldrb	r3, [r3, #0]
 8002740:	1c1a      	adds	r2, r3, #0
 8002742:	230f      	movs	r3, #15
 8002744:	4013      	ands	r3, r2
 8002746:	3b08      	subs	r3, #8
 8002748:	0898      	lsrs	r0, r3, #2
 800274a:	4a2c      	ldr	r2, [pc, #176]	; (80027fc <NVIC_SetPriority+0xd8>)
 800274c:	1dfb      	adds	r3, r7, #7
 800274e:	781b      	ldrb	r3, [r3, #0]
 8002750:	1c1c      	adds	r4, r3, #0
 8002752:	230f      	movs	r3, #15
 8002754:	4023      	ands	r3, r4
 8002756:	3b08      	subs	r3, #8
 8002758:	089b      	lsrs	r3, r3, #2
 800275a:	3306      	adds	r3, #6
 800275c:	009b      	lsls	r3, r3, #2
 800275e:	18d3      	adds	r3, r2, r3
 8002760:	685b      	ldr	r3, [r3, #4]
 8002762:	1dfa      	adds	r2, r7, #7
 8002764:	7812      	ldrb	r2, [r2, #0]
 8002766:	1c14      	adds	r4, r2, #0
 8002768:	2203      	movs	r2, #3
 800276a:	4022      	ands	r2, r4
 800276c:	00d2      	lsls	r2, r2, #3
 800276e:	24ff      	movs	r4, #255	; 0xff
 8002770:	1c25      	adds	r5, r4, #0
 8002772:	4095      	lsls	r5, r2
 8002774:	1c2a      	adds	r2, r5, #0
 8002776:	43d2      	mvns	r2, r2
 8002778:	401a      	ands	r2, r3
 800277a:	683b      	ldr	r3, [r7, #0]
 800277c:	019c      	lsls	r4, r3, #6
 800277e:	23ff      	movs	r3, #255	; 0xff
 8002780:	401c      	ands	r4, r3
 8002782:	1dfb      	adds	r3, r7, #7
 8002784:	781b      	ldrb	r3, [r3, #0]
 8002786:	1c1d      	adds	r5, r3, #0
 8002788:	2303      	movs	r3, #3
 800278a:	402b      	ands	r3, r5
 800278c:	00db      	lsls	r3, r3, #3
 800278e:	1c25      	adds	r5, r4, #0
 8002790:	409d      	lsls	r5, r3
 8002792:	1c2b      	adds	r3, r5, #0
 8002794:	431a      	orrs	r2, r3
 8002796:	1d83      	adds	r3, r0, #6
 8002798:	009b      	lsls	r3, r3, #2
 800279a:	18cb      	adds	r3, r1, r3
 800279c:	605a      	str	r2, [r3, #4]
 800279e:	e029      	b.n	80027f4 <NVIC_SetPriority+0xd0>
 80027a0:	4b17      	ldr	r3, [pc, #92]	; (8002800 <NVIC_SetPriority+0xdc>)
 80027a2:	1dfa      	adds	r2, r7, #7
 80027a4:	7812      	ldrb	r2, [r2, #0]
 80027a6:	b252      	sxtb	r2, r2
 80027a8:	0892      	lsrs	r2, r2, #2
 80027aa:	4915      	ldr	r1, [pc, #84]	; (8002800 <NVIC_SetPriority+0xdc>)
 80027ac:	1df8      	adds	r0, r7, #7
 80027ae:	7800      	ldrb	r0, [r0, #0]
 80027b0:	b240      	sxtb	r0, r0
 80027b2:	0880      	lsrs	r0, r0, #2
 80027b4:	30c0      	adds	r0, #192	; 0xc0
 80027b6:	0080      	lsls	r0, r0, #2
 80027b8:	5841      	ldr	r1, [r0, r1]
 80027ba:	1df8      	adds	r0, r7, #7
 80027bc:	7800      	ldrb	r0, [r0, #0]
 80027be:	1c04      	adds	r4, r0, #0
 80027c0:	2003      	movs	r0, #3
 80027c2:	4020      	ands	r0, r4
 80027c4:	00c0      	lsls	r0, r0, #3
 80027c6:	24ff      	movs	r4, #255	; 0xff
 80027c8:	1c25      	adds	r5, r4, #0
 80027ca:	4085      	lsls	r5, r0
 80027cc:	1c28      	adds	r0, r5, #0
 80027ce:	43c0      	mvns	r0, r0
 80027d0:	4008      	ands	r0, r1
 80027d2:	6839      	ldr	r1, [r7, #0]
 80027d4:	018c      	lsls	r4, r1, #6
 80027d6:	21ff      	movs	r1, #255	; 0xff
 80027d8:	400c      	ands	r4, r1
 80027da:	1df9      	adds	r1, r7, #7
 80027dc:	7809      	ldrb	r1, [r1, #0]
 80027de:	1c0d      	adds	r5, r1, #0
 80027e0:	2103      	movs	r1, #3
 80027e2:	4029      	ands	r1, r5
 80027e4:	00c9      	lsls	r1, r1, #3
 80027e6:	1c25      	adds	r5, r4, #0
 80027e8:	408d      	lsls	r5, r1
 80027ea:	1c29      	adds	r1, r5, #0
 80027ec:	4301      	orrs	r1, r0
 80027ee:	32c0      	adds	r2, #192	; 0xc0
 80027f0:	0092      	lsls	r2, r2, #2
 80027f2:	50d1      	str	r1, [r2, r3]
 80027f4:	46bd      	mov	sp, r7
 80027f6:	b002      	add	sp, #8
 80027f8:	bdb0      	pop	{r4, r5, r7, pc}
 80027fa:	46c0      	nop			; (mov r8, r8)
 80027fc:	e000ed00 	.word	0xe000ed00
 8002800:	e000e100 	.word	0xe000e100

08002804 <SysTick_Config>:
 8002804:	b580      	push	{r7, lr}
 8002806:	b082      	sub	sp, #8
 8002808:	af00      	add	r7, sp, #0
 800280a:	6078      	str	r0, [r7, #4]
 800280c:	687a      	ldr	r2, [r7, #4]
 800280e:	4b0e      	ldr	r3, [pc, #56]	; (8002848 <SysTick_Config+0x44>)
 8002810:	429a      	cmp	r2, r3
 8002812:	d901      	bls.n	8002818 <SysTick_Config+0x14>
 8002814:	2301      	movs	r3, #1
 8002816:	e012      	b.n	800283e <SysTick_Config+0x3a>
 8002818:	4b0c      	ldr	r3, [pc, #48]	; (800284c <SysTick_Config+0x48>)
 800281a:	687a      	ldr	r2, [r7, #4]
 800281c:	0212      	lsls	r2, r2, #8
 800281e:	0a12      	lsrs	r2, r2, #8
 8002820:	3a01      	subs	r2, #1
 8002822:	605a      	str	r2, [r3, #4]
 8002824:	2301      	movs	r3, #1
 8002826:	425b      	negs	r3, r3
 8002828:	1c18      	adds	r0, r3, #0
 800282a:	2103      	movs	r1, #3
 800282c:	f7ff ff7a 	bl	8002724 <NVIC_SetPriority>
 8002830:	4b06      	ldr	r3, [pc, #24]	; (800284c <SysTick_Config+0x48>)
 8002832:	2200      	movs	r2, #0
 8002834:	609a      	str	r2, [r3, #8]
 8002836:	4b05      	ldr	r3, [pc, #20]	; (800284c <SysTick_Config+0x48>)
 8002838:	2207      	movs	r2, #7
 800283a:	601a      	str	r2, [r3, #0]
 800283c:	2300      	movs	r3, #0
 800283e:	1c18      	adds	r0, r3, #0
 8002840:	46bd      	mov	sp, r7
 8002842:	b002      	add	sp, #8
 8002844:	bd80      	pop	{r7, pc}
 8002846:	46c0      	nop			; (mov r8, r8)
 8002848:	00ffffff 	.word	0x00ffffff
 800284c:	e000e010 	.word	0xe000e010

08002850 <System_init>:
 8002850:	b580      	push	{r7, lr}
 8002852:	af00      	add	r7, sp, #0
 8002854:	46bd      	mov	sp, r7
 8002856:	bd80      	pop	{r7, pc}

08002858 <System_PITSetup>:
 8002858:	b580      	push	{r7, lr}
 800285a:	b08a      	sub	sp, #40	; 0x28
 800285c:	af00      	add	r7, sp, #0
 800285e:	6078      	str	r0, [r7, #4]
 8002860:	4b0c      	ldr	r3, [pc, #48]	; (8002894 <System_PITSetup+0x3c>)
 8002862:	687a      	ldr	r2, [r7, #4]
 8002864:	601a      	str	r2, [r3, #0]
 8002866:	1c3b      	adds	r3, r7, #0
 8002868:	330c      	adds	r3, #12
 800286a:	1c18      	adds	r0, r3, #0
 800286c:	f7fd fd56 	bl	800031c <RCC_GetClocksFreq>
 8002870:	1c3b      	adds	r3, r7, #0
 8002872:	330c      	adds	r3, #12
 8002874:	685b      	ldr	r3, [r3, #4]
 8002876:	1c18      	adds	r0, r3, #0
 8002878:	23fa      	movs	r3, #250	; 0xfa
 800287a:	0099      	lsls	r1, r3, #2
 800287c:	f7fd fc22 	bl	80000c4 <__aeabi_uidiv>
 8002880:	1c03      	adds	r3, r0, #0
 8002882:	687a      	ldr	r2, [r7, #4]
 8002884:	4353      	muls	r3, r2
 8002886:	1c18      	adds	r0, r3, #0
 8002888:	f7ff ffbc 	bl	8002804 <SysTick_Config>
 800288c:	46bd      	mov	sp, r7
 800288e:	b00a      	add	sp, #40	; 0x28
 8002890:	bd80      	pop	{r7, pc}
 8002892:	46c0      	nop			; (mov r8, r8)
 8002894:	20000020 	.word	0x20000020

08002898 <System_PITSetTaskCallback>:
 8002898:	b580      	push	{r7, lr}
 800289a:	b082      	sub	sp, #8
 800289c:	af00      	add	r7, sp, #0
 800289e:	6078      	str	r0, [r7, #4]
 80028a0:	4b02      	ldr	r3, [pc, #8]	; (80028ac <System_PITSetTaskCallback+0x14>)
 80028a2:	687a      	ldr	r2, [r7, #4]
 80028a4:	601a      	str	r2, [r3, #0]
 80028a6:	46bd      	mov	sp, r7
 80028a8:	b002      	add	sp, #8
 80028aa:	bd80      	pop	{r7, pc}
 80028ac:	20000014 	.word	0x20000014

080028b0 <System_PITStart>:
 80028b0:	b580      	push	{r7, lr}
 80028b2:	af00      	add	r7, sp, #0
 80028b4:	4b0b      	ldr	r3, [pc, #44]	; (80028e4 <System_PITStart+0x34>)
 80028b6:	2200      	movs	r2, #0
 80028b8:	701a      	strb	r2, [r3, #0]
 80028ba:	4b0b      	ldr	r3, [pc, #44]	; (80028e8 <System_PITStart+0x38>)
 80028bc:	681b      	ldr	r3, [r3, #0]
 80028be:	2b00      	cmp	r3, #0
 80028c0:	d005      	beq.n	80028ce <System_PITStart+0x1e>
 80028c2:	4b09      	ldr	r3, [pc, #36]	; (80028e8 <System_PITStart+0x38>)
 80028c4:	681a      	ldr	r2, [r3, #0]
 80028c6:	4b09      	ldr	r3, [pc, #36]	; (80028ec <System_PITStart+0x3c>)
 80028c8:	681b      	ldr	r3, [r3, #0]
 80028ca:	1c18      	adds	r0, r3, #0
 80028cc:	4790      	blx	r2
 80028ce:	4b07      	ldr	r3, [pc, #28]	; (80028ec <System_PITStart+0x3c>)
 80028d0:	681a      	ldr	r2, [r3, #0]
 80028d2:	4b07      	ldr	r3, [pc, #28]	; (80028f0 <System_PITStart+0x40>)
 80028d4:	681b      	ldr	r3, [r3, #0]
 80028d6:	18d2      	adds	r2, r2, r3
 80028d8:	4b04      	ldr	r3, [pc, #16]	; (80028ec <System_PITStart+0x3c>)
 80028da:	601a      	str	r2, [r3, #0]
 80028dc:	f000 f80a 	bl	80028f4 <idle>
 80028e0:	e7e8      	b.n	80028b4 <System_PITStart+0x4>
 80028e2:	46c0      	nop			; (mov r8, r8)
 80028e4:	2000001c 	.word	0x2000001c
 80028e8:	20000014 	.word	0x20000014
 80028ec:	20000010 	.word	0x20000010
 80028f0:	20000020 	.word	0x20000020

080028f4 <idle>:
 80028f4:	b580      	push	{r7, lr}
 80028f6:	af00      	add	r7, sp, #0
 80028f8:	e009      	b.n	800290e <idle+0x1a>
 80028fa:	4b0a      	ldr	r3, [pc, #40]	; (8002924 <idle+0x30>)
 80028fc:	681b      	ldr	r3, [r3, #0]
 80028fe:	2b00      	cmp	r3, #0
 8002900:	d005      	beq.n	800290e <idle+0x1a>
 8002902:	4b08      	ldr	r3, [pc, #32]	; (8002924 <idle+0x30>)
 8002904:	681a      	ldr	r2, [r3, #0]
 8002906:	4b08      	ldr	r3, [pc, #32]	; (8002928 <idle+0x34>)
 8002908:	681b      	ldr	r3, [r3, #0]
 800290a:	1c18      	adds	r0, r3, #0
 800290c:	4790      	blx	r2
 800290e:	4b07      	ldr	r3, [pc, #28]	; (800292c <idle+0x38>)
 8002910:	781b      	ldrb	r3, [r3, #0]
 8002912:	b2db      	uxtb	r3, r3
 8002914:	2201      	movs	r2, #1
 8002916:	4053      	eors	r3, r2
 8002918:	b2db      	uxtb	r3, r3
 800291a:	2b00      	cmp	r3, #0
 800291c:	d1ed      	bne.n	80028fa <idle+0x6>
 800291e:	46bd      	mov	sp, r7
 8002920:	bd80      	pop	{r7, pc}
 8002922:	46c0      	nop			; (mov r8, r8)
 8002924:	20000018 	.word	0x20000018
 8002928:	20000010 	.word	0x20000010
 800292c:	2000001c 	.word	0x2000001c

08002930 <SysTick_Handler>:
 8002930:	b580      	push	{r7, lr}
 8002932:	af00      	add	r7, sp, #0
 8002934:	4b02      	ldr	r3, [pc, #8]	; (8002940 <SysTick_Handler+0x10>)
 8002936:	2201      	movs	r2, #1
 8002938:	701a      	strb	r2, [r3, #0]
 800293a:	46bd      	mov	sp, r7
 800293c:	bd80      	pop	{r7, pc}
 800293e:	46c0      	nop			; (mov r8, r8)
 8002940:	2000001c 	.word	0x2000001c

08002944 <Flash_init>:
 8002944:	b580      	push	{r7, lr}
 8002946:	af00      	add	r7, sp, #0
 8002948:	f7fe f89e 	bl	8000a88 <FLASH_Unlock>
 800294c:	46bd      	mov	sp, r7
 800294e:	bd80      	pop	{r7, pc}

08002950 <Flash_writeToDataPage>:
 8002950:	b580      	push	{r7, lr}
 8002952:	b084      	sub	sp, #16
 8002954:	af00      	add	r7, sp, #0
 8002956:	6078      	str	r0, [r7, #4]
 8002958:	6039      	str	r1, [r7, #0]
 800295a:	2300      	movs	r3, #0
 800295c:	60bb      	str	r3, [r7, #8]
 800295e:	683b      	ldr	r3, [r7, #0]
 8002960:	b2d9      	uxtb	r1, r3
 8002962:	1c3b      	adds	r3, r7, #0
 8002964:	330d      	adds	r3, #13
 8002966:	2203      	movs	r2, #3
 8002968:	400a      	ands	r2, r1
 800296a:	701a      	strb	r2, [r3, #0]
 800296c:	683b      	ldr	r3, [r7, #0]
 800296e:	089b      	lsrs	r3, r3, #2
 8002970:	603b      	str	r3, [r7, #0]
 8002972:	4b2e      	ldr	r3, [pc, #184]	; (8002a2c <Flash_writeToDataPage+0xdc>)
 8002974:	1c18      	adds	r0, r3, #0
 8002976:	f7fe f89d 	bl	8000ab4 <FLASH_ErasePage>
 800297a:	1c3b      	adds	r3, r7, #0
 800297c:	330e      	adds	r3, #14
 800297e:	2200      	movs	r2, #0
 8002980:	801a      	strh	r2, [r3, #0]
 8002982:	e017      	b.n	80029b4 <Flash_writeToDataPage+0x64>
 8002984:	1c3b      	adds	r3, r7, #0
 8002986:	330e      	adds	r3, #14
 8002988:	881b      	ldrh	r3, [r3, #0]
 800298a:	009b      	lsls	r3, r3, #2
 800298c:	4927      	ldr	r1, [pc, #156]	; (8002a2c <Flash_writeToDataPage+0xdc>)
 800298e:	185a      	adds	r2, r3, r1
 8002990:	1c3b      	adds	r3, r7, #0
 8002992:	330e      	adds	r3, #14
 8002994:	881b      	ldrh	r3, [r3, #0]
 8002996:	011b      	lsls	r3, r3, #4
 8002998:	6879      	ldr	r1, [r7, #4]
 800299a:	18cb      	adds	r3, r1, r3
 800299c:	681b      	ldr	r3, [r3, #0]
 800299e:	1c10      	adds	r0, r2, #0
 80029a0:	1c19      	adds	r1, r3, #0
 80029a2:	f7fe f8d9 	bl	8000b58 <FLASH_ProgramWord>
 80029a6:	1c3b      	adds	r3, r7, #0
 80029a8:	330e      	adds	r3, #14
 80029aa:	881a      	ldrh	r2, [r3, #0]
 80029ac:	1c3b      	adds	r3, r7, #0
 80029ae:	330e      	adds	r3, #14
 80029b0:	3201      	adds	r2, #1
 80029b2:	801a      	strh	r2, [r3, #0]
 80029b4:	1c3b      	adds	r3, r7, #0
 80029b6:	330e      	adds	r3, #14
 80029b8:	881a      	ldrh	r2, [r3, #0]
 80029ba:	683b      	ldr	r3, [r7, #0]
 80029bc:	429a      	cmp	r2, r3
 80029be:	d3e1      	bcc.n	8002984 <Flash_writeToDataPage+0x34>
 80029c0:	1c3b      	adds	r3, r7, #0
 80029c2:	330d      	adds	r3, #13
 80029c4:	781b      	ldrb	r3, [r3, #0]
 80029c6:	2b00      	cmp	r3, #0
 80029c8:	d02d      	beq.n	8002a26 <Flash_writeToDataPage+0xd6>
 80029ca:	1c3b      	adds	r3, r7, #0
 80029cc:	330e      	adds	r3, #14
 80029ce:	2200      	movs	r2, #0
 80029d0:	801a      	strh	r2, [r3, #0]
 80029d2:	e016      	b.n	8002a02 <Flash_writeToDataPage+0xb2>
 80029d4:	1c3b      	adds	r3, r7, #0
 80029d6:	330e      	adds	r3, #14
 80029d8:	881b      	ldrh	r3, [r3, #0]
 80029da:	1c3a      	adds	r2, r7, #0
 80029dc:	3208      	adds	r2, #8
 80029de:	18d3      	adds	r3, r2, r3
 80029e0:	683a      	ldr	r2, [r7, #0]
 80029e2:	0091      	lsls	r1, r2, #2
 80029e4:	1c3a      	adds	r2, r7, #0
 80029e6:	320e      	adds	r2, #14
 80029e8:	8812      	ldrh	r2, [r2, #0]
 80029ea:	188a      	adds	r2, r1, r2
 80029ec:	6879      	ldr	r1, [r7, #4]
 80029ee:	188a      	adds	r2, r1, r2
 80029f0:	7812      	ldrb	r2, [r2, #0]
 80029f2:	701a      	strb	r2, [r3, #0]
 80029f4:	1c3b      	adds	r3, r7, #0
 80029f6:	330e      	adds	r3, #14
 80029f8:	881a      	ldrh	r2, [r3, #0]
 80029fa:	1c3b      	adds	r3, r7, #0
 80029fc:	330e      	adds	r3, #14
 80029fe:	3201      	adds	r2, #1
 8002a00:	801a      	strh	r2, [r3, #0]
 8002a02:	1c3b      	adds	r3, r7, #0
 8002a04:	330d      	adds	r3, #13
 8002a06:	781b      	ldrb	r3, [r3, #0]
 8002a08:	b29b      	uxth	r3, r3
 8002a0a:	1c3a      	adds	r2, r7, #0
 8002a0c:	320e      	adds	r2, #14
 8002a0e:	8812      	ldrh	r2, [r2, #0]
 8002a10:	429a      	cmp	r2, r3
 8002a12:	d3df      	bcc.n	80029d4 <Flash_writeToDataPage+0x84>
 8002a14:	683b      	ldr	r3, [r7, #0]
 8002a16:	4a06      	ldr	r2, [pc, #24]	; (8002a30 <Flash_writeToDataPage+0xe0>)
 8002a18:	189b      	adds	r3, r3, r2
 8002a1a:	009a      	lsls	r2, r3, #2
 8002a1c:	68bb      	ldr	r3, [r7, #8]
 8002a1e:	1c10      	adds	r0, r2, #0
 8002a20:	1c19      	adds	r1, r3, #0
 8002a22:	f7fe f899 	bl	8000b58 <FLASH_ProgramWord>
 8002a26:	46bd      	mov	sp, r7
 8002a28:	b004      	add	sp, #16
 8002a2a:	bd80      	pop	{r7, pc}
 8002a2c:	0800fc00 	.word	0x0800fc00
 8002a30:	02003f00 	.word	0x02003f00

08002a34 <Flash_readFromDataPage>:
 8002a34:	b580      	push	{r7, lr}
 8002a36:	b082      	sub	sp, #8
 8002a38:	af00      	add	r7, sp, #0
 8002a3a:	6078      	str	r0, [r7, #4]
 8002a3c:	6039      	str	r1, [r7, #0]
 8002a3e:	6879      	ldr	r1, [r7, #4]
 8002a40:	4a04      	ldr	r2, [pc, #16]	; (8002a54 <Flash_readFromDataPage+0x20>)
 8002a42:	683b      	ldr	r3, [r7, #0]
 8002a44:	1c08      	adds	r0, r1, #0
 8002a46:	1c11      	adds	r1, r2, #0
 8002a48:	1c1a      	adds	r2, r3, #0
 8002a4a:	f000 ff25 	bl	8003898 <memcpy>
 8002a4e:	46bd      	mov	sp, r7
 8002a50:	b002      	add	sp, #8
 8002a52:	bd80      	pop	{r7, pc}
 8002a54:	0800fc00 	.word	0x0800fc00

08002a58 <DMA1_Channel1_IRQHandler>:
 8002a58:	b580      	push	{r7, lr}
 8002a5a:	af00      	add	r7, sp, #0
 8002a5c:	2002      	movs	r0, #2
 8002a5e:	f7ff f9a3 	bl	8001da8 <DMA_GetITStatus>
 8002a62:	1c03      	adds	r3, r0, #0
 8002a64:	2b00      	cmp	r3, #0
 8002a66:	d009      	beq.n	8002a7c <DMA1_Channel1_IRQHandler+0x24>
 8002a68:	4b17      	ldr	r3, [pc, #92]	; (8002ac8 <DMA1_Channel1_IRQHandler+0x70>)
 8002a6a:	681b      	ldr	r3, [r3, #0]
 8002a6c:	2b00      	cmp	r3, #0
 8002a6e:	d005      	beq.n	8002a7c <DMA1_Channel1_IRQHandler+0x24>
 8002a70:	4b15      	ldr	r3, [pc, #84]	; (8002ac8 <DMA1_Channel1_IRQHandler+0x70>)
 8002a72:	681a      	ldr	r2, [r3, #0]
 8002a74:	4b15      	ldr	r3, [pc, #84]	; (8002acc <DMA1_Channel1_IRQHandler+0x74>)
 8002a76:	681b      	ldr	r3, [r3, #0]
 8002a78:	1c18      	adds	r0, r3, #0
 8002a7a:	4790      	blx	r2
 8002a7c:	2004      	movs	r0, #4
 8002a7e:	f7ff f993 	bl	8001da8 <DMA_GetITStatus>
 8002a82:	1c03      	adds	r3, r0, #0
 8002a84:	2b00      	cmp	r3, #0
 8002a86:	d009      	beq.n	8002a9c <DMA1_Channel1_IRQHandler+0x44>
 8002a88:	4b11      	ldr	r3, [pc, #68]	; (8002ad0 <DMA1_Channel1_IRQHandler+0x78>)
 8002a8a:	681b      	ldr	r3, [r3, #0]
 8002a8c:	2b00      	cmp	r3, #0
 8002a8e:	d005      	beq.n	8002a9c <DMA1_Channel1_IRQHandler+0x44>
 8002a90:	4b0f      	ldr	r3, [pc, #60]	; (8002ad0 <DMA1_Channel1_IRQHandler+0x78>)
 8002a92:	681a      	ldr	r2, [r3, #0]
 8002a94:	4b0d      	ldr	r3, [pc, #52]	; (8002acc <DMA1_Channel1_IRQHandler+0x74>)
 8002a96:	681b      	ldr	r3, [r3, #0]
 8002a98:	1c18      	adds	r0, r3, #0
 8002a9a:	4790      	blx	r2
 8002a9c:	2008      	movs	r0, #8
 8002a9e:	f7ff f983 	bl	8001da8 <DMA_GetITStatus>
 8002aa2:	1c03      	adds	r3, r0, #0
 8002aa4:	2b00      	cmp	r3, #0
 8002aa6:	d009      	beq.n	8002abc <DMA1_Channel1_IRQHandler+0x64>
 8002aa8:	4b0a      	ldr	r3, [pc, #40]	; (8002ad4 <DMA1_Channel1_IRQHandler+0x7c>)
 8002aaa:	681b      	ldr	r3, [r3, #0]
 8002aac:	2b00      	cmp	r3, #0
 8002aae:	d005      	beq.n	8002abc <DMA1_Channel1_IRQHandler+0x64>
 8002ab0:	4b08      	ldr	r3, [pc, #32]	; (8002ad4 <DMA1_Channel1_IRQHandler+0x7c>)
 8002ab2:	681a      	ldr	r2, [r3, #0]
 8002ab4:	4b05      	ldr	r3, [pc, #20]	; (8002acc <DMA1_Channel1_IRQHandler+0x74>)
 8002ab6:	681b      	ldr	r3, [r3, #0]
 8002ab8:	1c18      	adds	r0, r3, #0
 8002aba:	4790      	blx	r2
 8002abc:	2001      	movs	r0, #1
 8002abe:	f7ff f9f1 	bl	8001ea4 <DMA_ClearITPendingBit>
 8002ac2:	46bd      	mov	sp, r7
 8002ac4:	bd80      	pop	{r7, pc}
 8002ac6:	46c0      	nop			; (mov r8, r8)
 8002ac8:	20000038 	.word	0x20000038
 8002acc:	20000060 	.word	0x20000060
 8002ad0:	2000004c 	.word	0x2000004c
 8002ad4:	20000024 	.word	0x20000024

08002ad8 <DMA1_Channel2_3_IRQHandler>:
 8002ad8:	b580      	push	{r7, lr}
 8002ada:	af00      	add	r7, sp, #0
 8002adc:	2020      	movs	r0, #32
 8002ade:	f7ff f963 	bl	8001da8 <DMA_GetITStatus>
 8002ae2:	1c03      	adds	r3, r0, #0
 8002ae4:	2b00      	cmp	r3, #0
 8002ae6:	d009      	beq.n	8002afc <DMA1_Channel2_3_IRQHandler+0x24>
 8002ae8:	4b34      	ldr	r3, [pc, #208]	; (8002bbc <DMA1_Channel2_3_IRQHandler+0xe4>)
 8002aea:	685b      	ldr	r3, [r3, #4]
 8002aec:	2b00      	cmp	r3, #0
 8002aee:	d005      	beq.n	8002afc <DMA1_Channel2_3_IRQHandler+0x24>
 8002af0:	4b32      	ldr	r3, [pc, #200]	; (8002bbc <DMA1_Channel2_3_IRQHandler+0xe4>)
 8002af2:	685a      	ldr	r2, [r3, #4]
 8002af4:	4b32      	ldr	r3, [pc, #200]	; (8002bc0 <DMA1_Channel2_3_IRQHandler+0xe8>)
 8002af6:	685b      	ldr	r3, [r3, #4]
 8002af8:	1c18      	adds	r0, r3, #0
 8002afa:	4790      	blx	r2
 8002afc:	2040      	movs	r0, #64	; 0x40
 8002afe:	f7ff f953 	bl	8001da8 <DMA_GetITStatus>
 8002b02:	1c03      	adds	r3, r0, #0
 8002b04:	2b00      	cmp	r3, #0
 8002b06:	d009      	beq.n	8002b1c <DMA1_Channel2_3_IRQHandler+0x44>
 8002b08:	4b2e      	ldr	r3, [pc, #184]	; (8002bc4 <DMA1_Channel2_3_IRQHandler+0xec>)
 8002b0a:	685b      	ldr	r3, [r3, #4]
 8002b0c:	2b00      	cmp	r3, #0
 8002b0e:	d005      	beq.n	8002b1c <DMA1_Channel2_3_IRQHandler+0x44>
 8002b10:	4b2c      	ldr	r3, [pc, #176]	; (8002bc4 <DMA1_Channel2_3_IRQHandler+0xec>)
 8002b12:	685a      	ldr	r2, [r3, #4]
 8002b14:	4b2a      	ldr	r3, [pc, #168]	; (8002bc0 <DMA1_Channel2_3_IRQHandler+0xe8>)
 8002b16:	685b      	ldr	r3, [r3, #4]
 8002b18:	1c18      	adds	r0, r3, #0
 8002b1a:	4790      	blx	r2
 8002b1c:	2080      	movs	r0, #128	; 0x80
 8002b1e:	f7ff f943 	bl	8001da8 <DMA_GetITStatus>
 8002b22:	1c03      	adds	r3, r0, #0
 8002b24:	2b00      	cmp	r3, #0
 8002b26:	d009      	beq.n	8002b3c <DMA1_Channel2_3_IRQHandler+0x64>
 8002b28:	4b27      	ldr	r3, [pc, #156]	; (8002bc8 <DMA1_Channel2_3_IRQHandler+0xf0>)
 8002b2a:	685b      	ldr	r3, [r3, #4]
 8002b2c:	2b00      	cmp	r3, #0
 8002b2e:	d005      	beq.n	8002b3c <DMA1_Channel2_3_IRQHandler+0x64>
 8002b30:	4b25      	ldr	r3, [pc, #148]	; (8002bc8 <DMA1_Channel2_3_IRQHandler+0xf0>)
 8002b32:	685a      	ldr	r2, [r3, #4]
 8002b34:	4b22      	ldr	r3, [pc, #136]	; (8002bc0 <DMA1_Channel2_3_IRQHandler+0xe8>)
 8002b36:	685b      	ldr	r3, [r3, #4]
 8002b38:	1c18      	adds	r0, r3, #0
 8002b3a:	4790      	blx	r2
 8002b3c:	2010      	movs	r0, #16
 8002b3e:	f7ff f9b1 	bl	8001ea4 <DMA_ClearITPendingBit>
 8002b42:	2380      	movs	r3, #128	; 0x80
 8002b44:	009b      	lsls	r3, r3, #2
 8002b46:	1c18      	adds	r0, r3, #0
 8002b48:	f7ff f92e 	bl	8001da8 <DMA_GetITStatus>
 8002b4c:	1c03      	adds	r3, r0, #0
 8002b4e:	2b00      	cmp	r3, #0
 8002b50:	d009      	beq.n	8002b66 <DMA1_Channel2_3_IRQHandler+0x8e>
 8002b52:	4b1a      	ldr	r3, [pc, #104]	; (8002bbc <DMA1_Channel2_3_IRQHandler+0xe4>)
 8002b54:	689b      	ldr	r3, [r3, #8]
 8002b56:	2b00      	cmp	r3, #0
 8002b58:	d005      	beq.n	8002b66 <DMA1_Channel2_3_IRQHandler+0x8e>
 8002b5a:	4b18      	ldr	r3, [pc, #96]	; (8002bbc <DMA1_Channel2_3_IRQHandler+0xe4>)
 8002b5c:	689a      	ldr	r2, [r3, #8]
 8002b5e:	4b18      	ldr	r3, [pc, #96]	; (8002bc0 <DMA1_Channel2_3_IRQHandler+0xe8>)
 8002b60:	689b      	ldr	r3, [r3, #8]
 8002b62:	1c18      	adds	r0, r3, #0
 8002b64:	4790      	blx	r2
 8002b66:	2380      	movs	r3, #128	; 0x80
 8002b68:	00db      	lsls	r3, r3, #3
 8002b6a:	1c18      	adds	r0, r3, #0
 8002b6c:	f7ff f91c 	bl	8001da8 <DMA_GetITStatus>
 8002b70:	1c03      	adds	r3, r0, #0
 8002b72:	2b00      	cmp	r3, #0
 8002b74:	d009      	beq.n	8002b8a <DMA1_Channel2_3_IRQHandler+0xb2>
 8002b76:	4b13      	ldr	r3, [pc, #76]	; (8002bc4 <DMA1_Channel2_3_IRQHandler+0xec>)
 8002b78:	689b      	ldr	r3, [r3, #8]
 8002b7a:	2b00      	cmp	r3, #0
 8002b7c:	d005      	beq.n	8002b8a <DMA1_Channel2_3_IRQHandler+0xb2>
 8002b7e:	4b11      	ldr	r3, [pc, #68]	; (8002bc4 <DMA1_Channel2_3_IRQHandler+0xec>)
 8002b80:	689a      	ldr	r2, [r3, #8]
 8002b82:	4b0f      	ldr	r3, [pc, #60]	; (8002bc0 <DMA1_Channel2_3_IRQHandler+0xe8>)
 8002b84:	689b      	ldr	r3, [r3, #8]
 8002b86:	1c18      	adds	r0, r3, #0
 8002b88:	4790      	blx	r2
 8002b8a:	2380      	movs	r3, #128	; 0x80
 8002b8c:	011b      	lsls	r3, r3, #4
 8002b8e:	1c18      	adds	r0, r3, #0
 8002b90:	f7ff f90a 	bl	8001da8 <DMA_GetITStatus>
 8002b94:	1c03      	adds	r3, r0, #0
 8002b96:	2b00      	cmp	r3, #0
 8002b98:	d009      	beq.n	8002bae <DMA1_Channel2_3_IRQHandler+0xd6>
 8002b9a:	4b0b      	ldr	r3, [pc, #44]	; (8002bc8 <DMA1_Channel2_3_IRQHandler+0xf0>)
 8002b9c:	689b      	ldr	r3, [r3, #8]
 8002b9e:	2b00      	cmp	r3, #0
 8002ba0:	d005      	beq.n	8002bae <DMA1_Channel2_3_IRQHandler+0xd6>
 8002ba2:	4b09      	ldr	r3, [pc, #36]	; (8002bc8 <DMA1_Channel2_3_IRQHandler+0xf0>)
 8002ba4:	689a      	ldr	r2, [r3, #8]
 8002ba6:	4b06      	ldr	r3, [pc, #24]	; (8002bc0 <DMA1_Channel2_3_IRQHandler+0xe8>)
 8002ba8:	689b      	ldr	r3, [r3, #8]
 8002baa:	1c18      	adds	r0, r3, #0
 8002bac:	4790      	blx	r2
 8002bae:	2380      	movs	r3, #128	; 0x80
 8002bb0:	005b      	lsls	r3, r3, #1
 8002bb2:	1c18      	adds	r0, r3, #0
 8002bb4:	f7ff f976 	bl	8001ea4 <DMA_ClearITPendingBit>
 8002bb8:	46bd      	mov	sp, r7
 8002bba:	bd80      	pop	{r7, pc}
 8002bbc:	20000038 	.word	0x20000038
 8002bc0:	20000060 	.word	0x20000060
 8002bc4:	2000004c 	.word	0x2000004c
 8002bc8:	20000024 	.word	0x20000024

08002bcc <DMA1_Channel4_5_IRQHandler>:
 8002bcc:	b580      	push	{r7, lr}
 8002bce:	af00      	add	r7, sp, #0
 8002bd0:	2380      	movs	r3, #128	; 0x80
 8002bd2:	019b      	lsls	r3, r3, #6
 8002bd4:	1c18      	adds	r0, r3, #0
 8002bd6:	f7ff f8e7 	bl	8001da8 <DMA_GetITStatus>
 8002bda:	1c03      	adds	r3, r0, #0
 8002bdc:	2b00      	cmp	r3, #0
 8002bde:	d009      	beq.n	8002bf4 <DMA1_Channel4_5_IRQHandler+0x28>
 8002be0:	4b37      	ldr	r3, [pc, #220]	; (8002cc0 <DMA1_Channel4_5_IRQHandler+0xf4>)
 8002be2:	68db      	ldr	r3, [r3, #12]
 8002be4:	2b00      	cmp	r3, #0
 8002be6:	d005      	beq.n	8002bf4 <DMA1_Channel4_5_IRQHandler+0x28>
 8002be8:	4b35      	ldr	r3, [pc, #212]	; (8002cc0 <DMA1_Channel4_5_IRQHandler+0xf4>)
 8002bea:	68da      	ldr	r2, [r3, #12]
 8002bec:	4b35      	ldr	r3, [pc, #212]	; (8002cc4 <DMA1_Channel4_5_IRQHandler+0xf8>)
 8002bee:	68db      	ldr	r3, [r3, #12]
 8002bf0:	1c18      	adds	r0, r3, #0
 8002bf2:	4790      	blx	r2
 8002bf4:	2380      	movs	r3, #128	; 0x80
 8002bf6:	01db      	lsls	r3, r3, #7
 8002bf8:	1c18      	adds	r0, r3, #0
 8002bfa:	f7ff f8d5 	bl	8001da8 <DMA_GetITStatus>
 8002bfe:	1c03      	adds	r3, r0, #0
 8002c00:	2b00      	cmp	r3, #0
 8002c02:	d009      	beq.n	8002c18 <DMA1_Channel4_5_IRQHandler+0x4c>
 8002c04:	4b30      	ldr	r3, [pc, #192]	; (8002cc8 <DMA1_Channel4_5_IRQHandler+0xfc>)
 8002c06:	68db      	ldr	r3, [r3, #12]
 8002c08:	2b00      	cmp	r3, #0
 8002c0a:	d005      	beq.n	8002c18 <DMA1_Channel4_5_IRQHandler+0x4c>
 8002c0c:	4b2e      	ldr	r3, [pc, #184]	; (8002cc8 <DMA1_Channel4_5_IRQHandler+0xfc>)
 8002c0e:	68da      	ldr	r2, [r3, #12]
 8002c10:	4b2c      	ldr	r3, [pc, #176]	; (8002cc4 <DMA1_Channel4_5_IRQHandler+0xf8>)
 8002c12:	68db      	ldr	r3, [r3, #12]
 8002c14:	1c18      	adds	r0, r3, #0
 8002c16:	4790      	blx	r2
 8002c18:	2380      	movs	r3, #128	; 0x80
 8002c1a:	021b      	lsls	r3, r3, #8
 8002c1c:	1c18      	adds	r0, r3, #0
 8002c1e:	f7ff f8c3 	bl	8001da8 <DMA_GetITStatus>
 8002c22:	1c03      	adds	r3, r0, #0
 8002c24:	2b00      	cmp	r3, #0
 8002c26:	d009      	beq.n	8002c3c <DMA1_Channel4_5_IRQHandler+0x70>
 8002c28:	4b28      	ldr	r3, [pc, #160]	; (8002ccc <DMA1_Channel4_5_IRQHandler+0x100>)
 8002c2a:	68db      	ldr	r3, [r3, #12]
 8002c2c:	2b00      	cmp	r3, #0
 8002c2e:	d005      	beq.n	8002c3c <DMA1_Channel4_5_IRQHandler+0x70>
 8002c30:	4b26      	ldr	r3, [pc, #152]	; (8002ccc <DMA1_Channel4_5_IRQHandler+0x100>)
 8002c32:	68da      	ldr	r2, [r3, #12]
 8002c34:	4b23      	ldr	r3, [pc, #140]	; (8002cc4 <DMA1_Channel4_5_IRQHandler+0xf8>)
 8002c36:	68db      	ldr	r3, [r3, #12]
 8002c38:	1c18      	adds	r0, r3, #0
 8002c3a:	4790      	blx	r2
 8002c3c:	2380      	movs	r3, #128	; 0x80
 8002c3e:	015b      	lsls	r3, r3, #5
 8002c40:	1c18      	adds	r0, r3, #0
 8002c42:	f7ff f92f 	bl	8001ea4 <DMA_ClearITPendingBit>
 8002c46:	2380      	movs	r3, #128	; 0x80
 8002c48:	029b      	lsls	r3, r3, #10
 8002c4a:	1c18      	adds	r0, r3, #0
 8002c4c:	f7ff f8ac 	bl	8001da8 <DMA_GetITStatus>
 8002c50:	1c03      	adds	r3, r0, #0
 8002c52:	2b00      	cmp	r3, #0
 8002c54:	d009      	beq.n	8002c6a <DMA1_Channel4_5_IRQHandler+0x9e>
 8002c56:	4b1a      	ldr	r3, [pc, #104]	; (8002cc0 <DMA1_Channel4_5_IRQHandler+0xf4>)
 8002c58:	691b      	ldr	r3, [r3, #16]
 8002c5a:	2b00      	cmp	r3, #0
 8002c5c:	d005      	beq.n	8002c6a <DMA1_Channel4_5_IRQHandler+0x9e>
 8002c5e:	4b18      	ldr	r3, [pc, #96]	; (8002cc0 <DMA1_Channel4_5_IRQHandler+0xf4>)
 8002c60:	691a      	ldr	r2, [r3, #16]
 8002c62:	4b18      	ldr	r3, [pc, #96]	; (8002cc4 <DMA1_Channel4_5_IRQHandler+0xf8>)
 8002c64:	691b      	ldr	r3, [r3, #16]
 8002c66:	1c18      	adds	r0, r3, #0
 8002c68:	4790      	blx	r2
 8002c6a:	2380      	movs	r3, #128	; 0x80
 8002c6c:	02db      	lsls	r3, r3, #11
 8002c6e:	1c18      	adds	r0, r3, #0
 8002c70:	f7ff f89a 	bl	8001da8 <DMA_GetITStatus>
 8002c74:	1c03      	adds	r3, r0, #0
 8002c76:	2b00      	cmp	r3, #0
 8002c78:	d009      	beq.n	8002c8e <DMA1_Channel4_5_IRQHandler+0xc2>
 8002c7a:	4b13      	ldr	r3, [pc, #76]	; (8002cc8 <DMA1_Channel4_5_IRQHandler+0xfc>)
 8002c7c:	691b      	ldr	r3, [r3, #16]
 8002c7e:	2b00      	cmp	r3, #0
 8002c80:	d005      	beq.n	8002c8e <DMA1_Channel4_5_IRQHandler+0xc2>
 8002c82:	4b11      	ldr	r3, [pc, #68]	; (8002cc8 <DMA1_Channel4_5_IRQHandler+0xfc>)
 8002c84:	691a      	ldr	r2, [r3, #16]
 8002c86:	4b0f      	ldr	r3, [pc, #60]	; (8002cc4 <DMA1_Channel4_5_IRQHandler+0xf8>)
 8002c88:	691b      	ldr	r3, [r3, #16]
 8002c8a:	1c18      	adds	r0, r3, #0
 8002c8c:	4790      	blx	r2
 8002c8e:	2380      	movs	r3, #128	; 0x80
 8002c90:	031b      	lsls	r3, r3, #12
 8002c92:	1c18      	adds	r0, r3, #0
 8002c94:	f7ff f888 	bl	8001da8 <DMA_GetITStatus>
 8002c98:	1c03      	adds	r3, r0, #0
 8002c9a:	2b00      	cmp	r3, #0
 8002c9c:	d009      	beq.n	8002cb2 <DMA1_Channel4_5_IRQHandler+0xe6>
 8002c9e:	4b0b      	ldr	r3, [pc, #44]	; (8002ccc <DMA1_Channel4_5_IRQHandler+0x100>)
 8002ca0:	691b      	ldr	r3, [r3, #16]
 8002ca2:	2b00      	cmp	r3, #0
 8002ca4:	d005      	beq.n	8002cb2 <DMA1_Channel4_5_IRQHandler+0xe6>
 8002ca6:	4b09      	ldr	r3, [pc, #36]	; (8002ccc <DMA1_Channel4_5_IRQHandler+0x100>)
 8002ca8:	691a      	ldr	r2, [r3, #16]
 8002caa:	4b06      	ldr	r3, [pc, #24]	; (8002cc4 <DMA1_Channel4_5_IRQHandler+0xf8>)
 8002cac:	691b      	ldr	r3, [r3, #16]
 8002cae:	1c18      	adds	r0, r3, #0
 8002cb0:	4790      	blx	r2
 8002cb2:	2380      	movs	r3, #128	; 0x80
 8002cb4:	025b      	lsls	r3, r3, #9
 8002cb6:	1c18      	adds	r0, r3, #0
 8002cb8:	f7ff f8f4 	bl	8001ea4 <DMA_ClearITPendingBit>
 8002cbc:	46bd      	mov	sp, r7
 8002cbe:	bd80      	pop	{r7, pc}
 8002cc0:	20000038 	.word	0x20000038
 8002cc4:	20000060 	.word	0x20000060
 8002cc8:	2000004c 	.word	0x2000004c
 8002ccc:	20000024 	.word	0x20000024

08002cd0 <USART1_init>:
 8002cd0:	b580      	push	{r7, lr}
 8002cd2:	b08a      	sub	sp, #40	; 0x28
 8002cd4:	af00      	add	r7, sp, #0
 8002cd6:	2380      	movs	r3, #128	; 0x80
 8002cd8:	01db      	lsls	r3, r3, #7
 8002cda:	1c18      	adds	r0, r3, #0
 8002cdc:	2101      	movs	r1, #1
 8002cde:	f7fd fc45 	bl	800056c <RCC_APB2PeriphClockCmd>
 8002ce2:	2380      	movs	r3, #128	; 0x80
 8002ce4:	029b      	lsls	r3, r3, #10
 8002ce6:	1c18      	adds	r0, r3, #0
 8002ce8:	2101      	movs	r1, #1
 8002cea:	f7fd fbfd 	bl	80004e8 <RCC_AHBPeriphClockCmd>
 8002cee:	2390      	movs	r3, #144	; 0x90
 8002cf0:	05db      	lsls	r3, r3, #23
 8002cf2:	1c18      	adds	r0, r3, #0
 8002cf4:	2109      	movs	r1, #9
 8002cf6:	2201      	movs	r2, #1
 8002cf8:	f7fd fd88 	bl	800080c <GPIO_PinAFConfig>
 8002cfc:	2390      	movs	r3, #144	; 0x90
 8002cfe:	05db      	lsls	r3, r3, #23
 8002d00:	1c18      	adds	r0, r3, #0
 8002d02:	210a      	movs	r1, #10
 8002d04:	2201      	movs	r2, #1
 8002d06:	f7fd fd81 	bl	800080c <GPIO_PinAFConfig>
 8002d0a:	1c3b      	adds	r3, r7, #0
 8002d0c:	3320      	adds	r3, #32
 8002d0e:	2202      	movs	r2, #2
 8002d10:	711a      	strb	r2, [r3, #4]
 8002d12:	1c3b      	adds	r3, r7, #0
 8002d14:	3320      	adds	r3, #32
 8002d16:	2200      	movs	r2, #0
 8002d18:	719a      	strb	r2, [r3, #6]
 8002d1a:	1c3b      	adds	r3, r7, #0
 8002d1c:	3320      	adds	r3, #32
 8002d1e:	22c0      	movs	r2, #192	; 0xc0
 8002d20:	00d2      	lsls	r2, r2, #3
 8002d22:	601a      	str	r2, [r3, #0]
 8002d24:	1c3b      	adds	r3, r7, #0
 8002d26:	3320      	adds	r3, #32
 8002d28:	2201      	movs	r2, #1
 8002d2a:	71da      	strb	r2, [r3, #7]
 8002d2c:	1c3b      	adds	r3, r7, #0
 8002d2e:	3320      	adds	r3, #32
 8002d30:	2203      	movs	r2, #3
 8002d32:	715a      	strb	r2, [r3, #5]
 8002d34:	2390      	movs	r3, #144	; 0x90
 8002d36:	05da      	lsls	r2, r3, #23
 8002d38:	1c3b      	adds	r3, r7, #0
 8002d3a:	3320      	adds	r3, #32
 8002d3c:	1c10      	adds	r0, r2, #0
 8002d3e:	1c19      	adds	r1, r3, #0
 8002d40:	f7fd fc56 	bl	80005f0 <GPIO_Init>
 8002d44:	1c3b      	adds	r3, r7, #0
 8002d46:	3308      	adds	r3, #8
 8002d48:	2296      	movs	r2, #150	; 0x96
 8002d4a:	0212      	lsls	r2, r2, #8
 8002d4c:	601a      	str	r2, [r3, #0]
 8002d4e:	1c3b      	adds	r3, r7, #0
 8002d50:	3308      	adds	r3, #8
 8002d52:	2200      	movs	r2, #0
 8002d54:	615a      	str	r2, [r3, #20]
 8002d56:	1c3b      	adds	r3, r7, #0
 8002d58:	3308      	adds	r3, #8
 8002d5a:	220c      	movs	r2, #12
 8002d5c:	611a      	str	r2, [r3, #16]
 8002d5e:	1c3b      	adds	r3, r7, #0
 8002d60:	3308      	adds	r3, #8
 8002d62:	2200      	movs	r2, #0
 8002d64:	60da      	str	r2, [r3, #12]
 8002d66:	1c3b      	adds	r3, r7, #0
 8002d68:	3308      	adds	r3, #8
 8002d6a:	2200      	movs	r2, #0
 8002d6c:	609a      	str	r2, [r3, #8]
 8002d6e:	1c3b      	adds	r3, r7, #0
 8002d70:	3308      	adds	r3, #8
 8002d72:	2200      	movs	r2, #0
 8002d74:	605a      	str	r2, [r3, #4]
 8002d76:	4a11      	ldr	r2, [pc, #68]	; (8002dbc <USART1_init+0xec>)
 8002d78:	1c3b      	adds	r3, r7, #0
 8002d7a:	3308      	adds	r3, #8
 8002d7c:	1c10      	adds	r0, r2, #0
 8002d7e:	1c19      	adds	r1, r3, #0
 8002d80:	f7ff f8ae 	bl	8001ee0 <USART_Init>
 8002d84:	4a0d      	ldr	r2, [pc, #52]	; (8002dbc <USART1_init+0xec>)
 8002d86:	4b0e      	ldr	r3, [pc, #56]	; (8002dc0 <USART1_init+0xf0>)
 8002d88:	1c10      	adds	r0, r2, #0
 8002d8a:	1c19      	adds	r1, r3, #0
 8002d8c:	2201      	movs	r2, #1
 8002d8e:	f7ff fa63 	bl	8002258 <USART_ITConfig>
 8002d92:	1d3b      	adds	r3, r7, #4
 8002d94:	221b      	movs	r2, #27
 8002d96:	701a      	strb	r2, [r3, #0]
 8002d98:	1d3b      	adds	r3, r7, #4
 8002d9a:	2201      	movs	r2, #1
 8002d9c:	705a      	strb	r2, [r3, #1]
 8002d9e:	1d3b      	adds	r3, r7, #4
 8002da0:	2201      	movs	r2, #1
 8002da2:	709a      	strb	r2, [r3, #2]
 8002da4:	1d3b      	adds	r3, r7, #4
 8002da6:	1c18      	adds	r0, r3, #0
 8002da8:	f7fd fe00 	bl	80009ac <NVIC_Init>
 8002dac:	4b03      	ldr	r3, [pc, #12]	; (8002dbc <USART1_init+0xec>)
 8002dae:	1c18      	adds	r0, r3, #0
 8002db0:	2101      	movs	r1, #1
 8002db2:	f7ff f9d9 	bl	8002168 <USART_Cmd>
 8002db6:	46bd      	mov	sp, r7
 8002db8:	b00a      	add	sp, #40	; 0x28
 8002dba:	bd80      	pop	{r7, pc}
 8002dbc:	40013800 	.word	0x40013800
 8002dc0:	00050105 	.word	0x00050105

08002dc4 <USART1_setByteReceivedCallback>:
 8002dc4:	b580      	push	{r7, lr}
 8002dc6:	b082      	sub	sp, #8
 8002dc8:	af00      	add	r7, sp, #0
 8002dca:	6078      	str	r0, [r7, #4]
 8002dcc:	4b02      	ldr	r3, [pc, #8]	; (8002dd8 <USART1_setByteReceivedCallback+0x14>)
 8002dce:	687a      	ldr	r2, [r7, #4]
 8002dd0:	601a      	str	r2, [r3, #0]
 8002dd2:	46bd      	mov	sp, r7
 8002dd4:	b002      	add	sp, #8
 8002dd6:	bd80      	pop	{r7, pc}
 8002dd8:	20000074 	.word	0x20000074

08002ddc <USART1_sendByte>:
 8002ddc:	b580      	push	{r7, lr}
 8002dde:	b082      	sub	sp, #8
 8002de0:	af00      	add	r7, sp, #0
 8002de2:	1c02      	adds	r2, r0, #0
 8002de4:	1dfb      	adds	r3, r7, #7
 8002de6:	701a      	strb	r2, [r3, #0]
 8002de8:	46c0      	nop			; (mov r8, r8)
 8002dea:	4b09      	ldr	r3, [pc, #36]	; (8002e10 <USART1_sendByte+0x34>)
 8002dec:	1c18      	adds	r0, r3, #0
 8002dee:	2180      	movs	r1, #128	; 0x80
 8002df0:	f7ff fae8 	bl	80023c4 <USART_GetFlagStatus>
 8002df4:	1c03      	adds	r3, r0, #0
 8002df6:	2b00      	cmp	r3, #0
 8002df8:	d0f7      	beq.n	8002dea <USART1_sendByte+0xe>
 8002dfa:	1dfb      	adds	r3, r7, #7
 8002dfc:	781b      	ldrb	r3, [r3, #0]
 8002dfe:	b29b      	uxth	r3, r3
 8002e00:	4a03      	ldr	r2, [pc, #12]	; (8002e10 <USART1_sendByte+0x34>)
 8002e02:	1c10      	adds	r0, r2, #0
 8002e04:	1c19      	adds	r1, r3, #0
 8002e06:	f7ff f9f1 	bl	80021ec <USART_SendData>
 8002e0a:	46bd      	mov	sp, r7
 8002e0c:	b002      	add	sp, #8
 8002e0e:	bd80      	pop	{r7, pc}
 8002e10:	40013800 	.word	0x40013800

08002e14 <USART1_IRQHandler>:
 8002e14:	b580      	push	{r7, lr}
 8002e16:	b082      	sub	sp, #8
 8002e18:	af00      	add	r7, sp, #0
 8002e1a:	4a10      	ldr	r2, [pc, #64]	; (8002e5c <USART1_IRQHandler+0x48>)
 8002e1c:	4b10      	ldr	r3, [pc, #64]	; (8002e60 <USART1_IRQHandler+0x4c>)
 8002e1e:	1c10      	adds	r0, r2, #0
 8002e20:	1c19      	adds	r1, r3, #0
 8002e22:	f7ff fb8d 	bl	8002540 <USART_GetITStatus>
 8002e26:	1c03      	adds	r3, r0, #0
 8002e28:	2b01      	cmp	r3, #1
 8002e2a:	d10e      	bne.n	8002e4a <USART1_IRQHandler+0x36>
 8002e2c:	4b0b      	ldr	r3, [pc, #44]	; (8002e5c <USART1_IRQHandler+0x48>)
 8002e2e:	8c9b      	ldrh	r3, [r3, #36]	; 0x24
 8002e30:	b29a      	uxth	r2, r3
 8002e32:	1dfb      	adds	r3, r7, #7
 8002e34:	701a      	strb	r2, [r3, #0]
 8002e36:	4b0b      	ldr	r3, [pc, #44]	; (8002e64 <USART1_IRQHandler+0x50>)
 8002e38:	681b      	ldr	r3, [r3, #0]
 8002e3a:	2b00      	cmp	r3, #0
 8002e3c:	d005      	beq.n	8002e4a <USART1_IRQHandler+0x36>
 8002e3e:	4b09      	ldr	r3, [pc, #36]	; (8002e64 <USART1_IRQHandler+0x50>)
 8002e40:	681b      	ldr	r3, [r3, #0]
 8002e42:	1dfa      	adds	r2, r7, #7
 8002e44:	7812      	ldrb	r2, [r2, #0]
 8002e46:	1c10      	adds	r0, r2, #0
 8002e48:	4798      	blx	r3
 8002e4a:	4a04      	ldr	r2, [pc, #16]	; (8002e5c <USART1_IRQHandler+0x48>)
 8002e4c:	4b06      	ldr	r3, [pc, #24]	; (8002e68 <USART1_IRQHandler+0x54>)
 8002e4e:	1c10      	adds	r0, r2, #0
 8002e50:	1c19      	adds	r1, r3, #0
 8002e52:	f7ff fb55 	bl	8002500 <USART_ClearFlag>
 8002e56:	46bd      	mov	sp, r7
 8002e58:	b002      	add	sp, #8
 8002e5a:	bd80      	pop	{r7, pc}
 8002e5c:	40013800 	.word	0x40013800
 8002e60:	00050105 	.word	0x00050105
 8002e64:	20000074 	.word	0x20000074
 8002e68:	00121b5f 	.word	0x00121b5f

08002e6c <Tim1_Pwm_init>:
 8002e6c:	b580      	push	{r7, lr}
 8002e6e:	b08a      	sub	sp, #40	; 0x28
 8002e70:	af00      	add	r7, sp, #0
 8002e72:	2380      	movs	r3, #128	; 0x80
 8002e74:	02db      	lsls	r3, r3, #11
 8002e76:	1c18      	adds	r0, r3, #0
 8002e78:	2101      	movs	r1, #1
 8002e7a:	f7fd fb35 	bl	80004e8 <RCC_AHBPeriphClockCmd>
 8002e7e:	2380      	movs	r3, #128	; 0x80
 8002e80:	011b      	lsls	r3, r3, #4
 8002e82:	1c18      	adds	r0, r3, #0
 8002e84:	2101      	movs	r1, #1
 8002e86:	f7fd fb71 	bl	800056c <RCC_APB2PeriphClockCmd>
 8002e8a:	1c3b      	adds	r3, r7, #0
 8002e8c:	3320      	adds	r3, #32
 8002e8e:	2202      	movs	r2, #2
 8002e90:	711a      	strb	r2, [r3, #4]
 8002e92:	1c3b      	adds	r3, r7, #0
 8002e94:	3320      	adds	r3, #32
 8002e96:	2200      	movs	r2, #0
 8002e98:	719a      	strb	r2, [r3, #6]
 8002e9a:	1c3b      	adds	r3, r7, #0
 8002e9c:	3320      	adds	r3, #32
 8002e9e:	22e0      	movs	r2, #224	; 0xe0
 8002ea0:	0212      	lsls	r2, r2, #8
 8002ea2:	601a      	str	r2, [r3, #0]
 8002ea4:	1c3b      	adds	r3, r7, #0
 8002ea6:	3320      	adds	r3, #32
 8002ea8:	2201      	movs	r2, #1
 8002eaa:	71da      	strb	r2, [r3, #7]
 8002eac:	1c3b      	adds	r3, r7, #0
 8002eae:	3320      	adds	r3, #32
 8002eb0:	2203      	movs	r2, #3
 8002eb2:	715a      	strb	r2, [r3, #5]
 8002eb4:	4a3e      	ldr	r2, [pc, #248]	; (8002fb0 <Tim1_Pwm_init+0x144>)
 8002eb6:	1c3b      	adds	r3, r7, #0
 8002eb8:	3320      	adds	r3, #32
 8002eba:	1c10      	adds	r0, r2, #0
 8002ebc:	1c19      	adds	r1, r3, #0
 8002ebe:	f7fd fb97 	bl	80005f0 <GPIO_Init>
 8002ec2:	4b3b      	ldr	r3, [pc, #236]	; (8002fb0 <Tim1_Pwm_init+0x144>)
 8002ec4:	1c18      	adds	r0, r3, #0
 8002ec6:	210d      	movs	r1, #13
 8002ec8:	2202      	movs	r2, #2
 8002eca:	f7fd fc9f 	bl	800080c <GPIO_PinAFConfig>
 8002ece:	4b38      	ldr	r3, [pc, #224]	; (8002fb0 <Tim1_Pwm_init+0x144>)
 8002ed0:	1c18      	adds	r0, r3, #0
 8002ed2:	210e      	movs	r1, #14
 8002ed4:	2202      	movs	r2, #2
 8002ed6:	f7fd fc99 	bl	800080c <GPIO_PinAFConfig>
 8002eda:	4b35      	ldr	r3, [pc, #212]	; (8002fb0 <Tim1_Pwm_init+0x144>)
 8002edc:	1c18      	adds	r0, r3, #0
 8002ede:	210f      	movs	r1, #15
 8002ee0:	2202      	movs	r2, #2
 8002ee2:	f7fd fc93 	bl	800080c <GPIO_PinAFConfig>
 8002ee6:	1c3b      	adds	r3, r7, #0
 8002ee8:	3314      	adds	r3, #20
 8002eea:	2200      	movs	r2, #0
 8002eec:	801a      	strh	r2, [r3, #0]
 8002eee:	1c3b      	adds	r3, r7, #0
 8002ef0:	3314      	adds	r3, #20
 8002ef2:	2200      	movs	r2, #0
 8002ef4:	805a      	strh	r2, [r3, #2]
 8002ef6:	1c3b      	adds	r3, r7, #0
 8002ef8:	3314      	adds	r3, #20
 8002efa:	2280      	movs	r2, #128	; 0x80
 8002efc:	0052      	lsls	r2, r2, #1
 8002efe:	605a      	str	r2, [r3, #4]
 8002f00:	1c3b      	adds	r3, r7, #0
 8002f02:	3314      	adds	r3, #20
 8002f04:	2200      	movs	r2, #0
 8002f06:	811a      	strh	r2, [r3, #8]
 8002f08:	1c3b      	adds	r3, r7, #0
 8002f0a:	3314      	adds	r3, #20
 8002f0c:	2200      	movs	r2, #0
 8002f0e:	729a      	strb	r2, [r3, #10]
 8002f10:	4a28      	ldr	r2, [pc, #160]	; (8002fb4 <Tim1_Pwm_init+0x148>)
 8002f12:	1c3b      	adds	r3, r7, #0
 8002f14:	3314      	adds	r3, #20
 8002f16:	1c10      	adds	r0, r2, #0
 8002f18:	1c19      	adds	r1, r3, #0
 8002f1a:	f7fd fee5 	bl	8000ce8 <TIM_TimeBaseInit>
 8002f1e:	1c3b      	adds	r3, r7, #0
 8002f20:	2260      	movs	r2, #96	; 0x60
 8002f22:	801a      	strh	r2, [r3, #0]
 8002f24:	1c3b      	adds	r3, r7, #0
 8002f26:	2201      	movs	r2, #1
 8002f28:	805a      	strh	r2, [r3, #2]
 8002f2a:	1c3b      	adds	r3, r7, #0
 8002f2c:	2204      	movs	r2, #4
 8002f2e:	809a      	strh	r2, [r3, #4]
 8002f30:	1c3b      	adds	r3, r7, #0
 8002f32:	2200      	movs	r2, #0
 8002f34:	819a      	strh	r2, [r3, #12]
 8002f36:	1c3b      	adds	r3, r7, #0
 8002f38:	2208      	movs	r2, #8
 8002f3a:	81da      	strh	r2, [r3, #14]
 8002f3c:	1c3b      	adds	r3, r7, #0
 8002f3e:	2280      	movs	r2, #128	; 0x80
 8002f40:	0052      	lsls	r2, r2, #1
 8002f42:	821a      	strh	r2, [r3, #16]
 8002f44:	1c3b      	adds	r3, r7, #0
 8002f46:	2200      	movs	r2, #0
 8002f48:	825a      	strh	r2, [r3, #18]
 8002f4a:	1c3b      	adds	r3, r7, #0
 8002f4c:	2200      	movs	r2, #0
 8002f4e:	609a      	str	r2, [r3, #8]
 8002f50:	4a18      	ldr	r2, [pc, #96]	; (8002fb4 <Tim1_Pwm_init+0x148>)
 8002f52:	1c3b      	adds	r3, r7, #0
 8002f54:	1c10      	adds	r0, r2, #0
 8002f56:	1c19      	adds	r1, r3, #0
 8002f58:	f7fe f8c2 	bl	80010e0 <TIM_OC1Init>
 8002f5c:	4a15      	ldr	r2, [pc, #84]	; (8002fb4 <Tim1_Pwm_init+0x148>)
 8002f5e:	1c3b      	adds	r3, r7, #0
 8002f60:	1c10      	adds	r0, r2, #0
 8002f62:	1c19      	adds	r1, r3, #0
 8002f64:	f7fe fa3c 	bl	80013e0 <TIM_OC2Init>
 8002f68:	4a12      	ldr	r2, [pc, #72]	; (8002fb4 <Tim1_Pwm_init+0x148>)
 8002f6a:	1c3b      	adds	r3, r7, #0
 8002f6c:	1c10      	adds	r0, r2, #0
 8002f6e:	1c19      	adds	r1, r3, #0
 8002f70:	f7fe fbaa 	bl	80016c8 <TIM_OC3Init>
 8002f74:	4a0f      	ldr	r2, [pc, #60]	; (8002fb4 <Tim1_Pwm_init+0x148>)
 8002f76:	1c3b      	adds	r3, r7, #0
 8002f78:	1c10      	adds	r0, r2, #0
 8002f7a:	1c19      	adds	r1, r3, #0
 8002f7c:	f7fe fd14 	bl	80019a8 <TIM_OC4Init>
 8002f80:	4b0c      	ldr	r3, [pc, #48]	; (8002fb4 <Tim1_Pwm_init+0x148>)
 8002f82:	1c18      	adds	r0, r3, #0
 8002f84:	2100      	movs	r1, #0
 8002f86:	f7fe fea3 	bl	8001cd0 <TIM_OC1PreloadConfig>
 8002f8a:	4b0a      	ldr	r3, [pc, #40]	; (8002fb4 <Tim1_Pwm_init+0x148>)
 8002f8c:	1c18      	adds	r0, r3, #0
 8002f8e:	2101      	movs	r1, #1
 8002f90:	f7fd ff80 	bl	8000e94 <TIM_ARRPreloadConfig>
 8002f94:	4b07      	ldr	r3, [pc, #28]	; (8002fb4 <Tim1_Pwm_init+0x148>)
 8002f96:	1c18      	adds	r0, r3, #0
 8002f98:	2101      	movs	r1, #1
 8002f9a:	f7fe f849 	bl	8001030 <TIM_CtrlPWMOutputs>
 8002f9e:	4b05      	ldr	r3, [pc, #20]	; (8002fb4 <Tim1_Pwm_init+0x148>)
 8002fa0:	1c18      	adds	r0, r3, #0
 8002fa2:	2101      	movs	r1, #1
 8002fa4:	f7fd ffdc 	bl	8000f60 <TIM_Cmd>
 8002fa8:	46bd      	mov	sp, r7
 8002faa:	b00a      	add	sp, #40	; 0x28
 8002fac:	bd80      	pop	{r7, pc}
 8002fae:	46c0      	nop			; (mov r8, r8)
 8002fb0:	48000400 	.word	0x48000400
 8002fb4:	40012c00 	.word	0x40012c00

08002fb8 <Tim1_Pwm_setValueCh1>:
 8002fb8:	b580      	push	{r7, lr}
 8002fba:	b082      	sub	sp, #8
 8002fbc:	af00      	add	r7, sp, #0
 8002fbe:	1c02      	adds	r2, r0, #0
 8002fc0:	1dfb      	adds	r3, r7, #7
 8002fc2:	701a      	strb	r2, [r3, #0]
 8002fc4:	1dfb      	adds	r3, r7, #7
 8002fc6:	781b      	ldrb	r3, [r3, #0]
 8002fc8:	4a03      	ldr	r2, [pc, #12]	; (8002fd8 <Tim1_Pwm_setValueCh1+0x20>)
 8002fca:	1c10      	adds	r0, r2, #0
 8002fcc:	1c19      	adds	r1, r3, #0
 8002fce:	f7fe fdef 	bl	8001bb0 <TIM_SetCompare1>
 8002fd2:	46bd      	mov	sp, r7
 8002fd4:	b002      	add	sp, #8
 8002fd6:	bd80      	pop	{r7, pc}
 8002fd8:	40012c00 	.word	0x40012c00

08002fdc <Tim1_Pwm_setValueCh2>:
 8002fdc:	b580      	push	{r7, lr}
 8002fde:	b082      	sub	sp, #8
 8002fe0:	af00      	add	r7, sp, #0
 8002fe2:	1c02      	adds	r2, r0, #0
 8002fe4:	1dfb      	adds	r3, r7, #7
 8002fe6:	701a      	strb	r2, [r3, #0]
 8002fe8:	1dfb      	adds	r3, r7, #7
 8002fea:	781b      	ldrb	r3, [r3, #0]
 8002fec:	4a03      	ldr	r2, [pc, #12]	; (8002ffc <Tim1_Pwm_setValueCh2+0x20>)
 8002fee:	1c10      	adds	r0, r2, #0
 8002ff0:	1c19      	adds	r1, r3, #0
 8002ff2:	f7fe fe1b 	bl	8001c2c <TIM_SetCompare2>
 8002ff6:	46bd      	mov	sp, r7
 8002ff8:	b002      	add	sp, #8
 8002ffa:	bd80      	pop	{r7, pc}
 8002ffc:	40012c00 	.word	0x40012c00

08003000 <Tim1_Pwm_setValueCh3>:
 8003000:	b580      	push	{r7, lr}
 8003002:	b082      	sub	sp, #8
 8003004:	af00      	add	r7, sp, #0
 8003006:	1c02      	adds	r2, r0, #0
 8003008:	1dfb      	adds	r3, r7, #7
 800300a:	701a      	strb	r2, [r3, #0]
 800300c:	1dfb      	adds	r3, r7, #7
 800300e:	781b      	ldrb	r3, [r3, #0]
 8003010:	4a03      	ldr	r2, [pc, #12]	; (8003020 <Tim1_Pwm_setValueCh3+0x20>)
 8003012:	1c10      	adds	r0, r2, #0
 8003014:	1c19      	adds	r1, r3, #0
 8003016:	f7fe fe35 	bl	8001c84 <TIM_SetCompare3>
 800301a:	46bd      	mov	sp, r7
 800301c:	b002      	add	sp, #8
 800301e:	bd80      	pop	{r7, pc}
 8003020:	40012c00 	.word	0x40012c00

08003024 <BinUtils_get4BytesFrom32Bit>:
 8003024:	b580      	push	{r7, lr}
 8003026:	b084      	sub	sp, #16
 8003028:	af00      	add	r7, sp, #0
 800302a:	60f8      	str	r0, [r7, #12]
 800302c:	60b9      	str	r1, [r7, #8]
 800302e:	607a      	str	r2, [r7, #4]
 8003030:	603b      	str	r3, [r7, #0]
 8003032:	68fb      	ldr	r3, [r7, #12]
 8003034:	b2da      	uxtb	r2, r3
 8003036:	69bb      	ldr	r3, [r7, #24]
 8003038:	701a      	strb	r2, [r3, #0]
 800303a:	68fb      	ldr	r3, [r7, #12]
 800303c:	0a1b      	lsrs	r3, r3, #8
 800303e:	60fb      	str	r3, [r7, #12]
 8003040:	68fb      	ldr	r3, [r7, #12]
 8003042:	b2da      	uxtb	r2, r3
 8003044:	683b      	ldr	r3, [r7, #0]
 8003046:	701a      	strb	r2, [r3, #0]
 8003048:	68fb      	ldr	r3, [r7, #12]
 800304a:	0a1b      	lsrs	r3, r3, #8
 800304c:	60fb      	str	r3, [r7, #12]
 800304e:	68fb      	ldr	r3, [r7, #12]
 8003050:	b2da      	uxtb	r2, r3
 8003052:	687b      	ldr	r3, [r7, #4]
 8003054:	701a      	strb	r2, [r3, #0]
 8003056:	68fb      	ldr	r3, [r7, #12]
 8003058:	0a1b      	lsrs	r3, r3, #8
 800305a:	60fb      	str	r3, [r7, #12]
 800305c:	68fb      	ldr	r3, [r7, #12]
 800305e:	b2da      	uxtb	r2, r3
 8003060:	68bb      	ldr	r3, [r7, #8]
 8003062:	701a      	strb	r2, [r3, #0]
 8003064:	46bd      	mov	sp, r7
 8003066:	b004      	add	sp, #16
 8003068:	bd80      	pop	{r7, pc}
 800306a:	46c0      	nop			; (mov r8, r8)

0800306c <FiFo_init>:
 800306c:	b580      	push	{r7, lr}
 800306e:	b084      	sub	sp, #16
 8003070:	af00      	add	r7, sp, #0
 8003072:	60f8      	str	r0, [r7, #12]
 8003074:	60b9      	str	r1, [r7, #8]
 8003076:	1c11      	adds	r1, r2, #0
 8003078:	1c1a      	adds	r2, r3, #0
 800307a:	1dbb      	adds	r3, r7, #6
 800307c:	8019      	strh	r1, [r3, #0]
 800307e:	1d3b      	adds	r3, r7, #4
 8003080:	801a      	strh	r2, [r3, #0]
 8003082:	68fb      	ldr	r3, [r7, #12]
 8003084:	68ba      	ldr	r2, [r7, #8]
 8003086:	601a      	str	r2, [r3, #0]
 8003088:	68fb      	ldr	r3, [r7, #12]
 800308a:	1dba      	adds	r2, r7, #6
 800308c:	8812      	ldrh	r2, [r2, #0]
 800308e:	809a      	strh	r2, [r3, #4]
 8003090:	68fb      	ldr	r3, [r7, #12]
 8003092:	68ba      	ldr	r2, [r7, #8]
 8003094:	609a      	str	r2, [r3, #8]
 8003096:	68fb      	ldr	r3, [r7, #12]
 8003098:	68ba      	ldr	r2, [r7, #8]
 800309a:	60da      	str	r2, [r3, #12]
 800309c:	68fb      	ldr	r3, [r7, #12]
 800309e:	1d3a      	adds	r2, r7, #4
 80030a0:	8812      	ldrh	r2, [r2, #0]
 80030a2:	80da      	strh	r2, [r3, #6]
 80030a4:	68fb      	ldr	r3, [r7, #12]
 80030a6:	2200      	movs	r2, #0
 80030a8:	821a      	strh	r2, [r3, #16]
 80030aa:	1d3a      	adds	r2, r7, #4
 80030ac:	1dbb      	adds	r3, r7, #6
 80030ae:	8812      	ldrh	r2, [r2, #0]
 80030b0:	881b      	ldrh	r3, [r3, #0]
 80030b2:	1c10      	adds	r0, r2, #0
 80030b4:	1c19      	adds	r1, r3, #0
 80030b6:	f7fd f805 	bl	80000c4 <__aeabi_uidiv>
 80030ba:	1c03      	adds	r3, r0, #0
 80030bc:	b29a      	uxth	r2, r3
 80030be:	68fb      	ldr	r3, [r7, #12]
 80030c0:	825a      	strh	r2, [r3, #18]
 80030c2:	46bd      	mov	sp, r7
 80030c4:	b004      	add	sp, #16
 80030c6:	bd80      	pop	{r7, pc}

080030c8 <FiFo_push>:
 80030c8:	b580      	push	{r7, lr}
 80030ca:	b082      	sub	sp, #8
 80030cc:	af00      	add	r7, sp, #0
 80030ce:	6078      	str	r0, [r7, #4]
 80030d0:	6039      	str	r1, [r7, #0]
 80030d2:	687b      	ldr	r3, [r7, #4]
 80030d4:	8a1b      	ldrh	r3, [r3, #16]
 80030d6:	b29a      	uxth	r2, r3
 80030d8:	687b      	ldr	r3, [r7, #4]
 80030da:	8a5b      	ldrh	r3, [r3, #18]
 80030dc:	b29b      	uxth	r3, r3
 80030de:	429a      	cmp	r2, r3
 80030e0:	d21d      	bcs.n	800311e <FiFo_push+0x56>
 80030e2:	687b      	ldr	r3, [r7, #4]
 80030e4:	68d9      	ldr	r1, [r3, #12]
 80030e6:	687b      	ldr	r3, [r7, #4]
 80030e8:	889b      	ldrh	r3, [r3, #4]
 80030ea:	b29b      	uxth	r3, r3
 80030ec:	683a      	ldr	r2, [r7, #0]
 80030ee:	1c08      	adds	r0, r1, #0
 80030f0:	1c11      	adds	r1, r2, #0
 80030f2:	1c1a      	adds	r2, r3, #0
 80030f4:	f000 fbd0 	bl	8003898 <memcpy>
 80030f8:	687b      	ldr	r3, [r7, #4]
 80030fa:	68db      	ldr	r3, [r3, #12]
 80030fc:	687a      	ldr	r2, [r7, #4]
 80030fe:	1c10      	adds	r0, r2, #0
 8003100:	1c19      	adds	r1, r3, #0
 8003102:	f000 f83f 	bl	8003184 <getNextPointerLocation>
 8003106:	1c02      	adds	r2, r0, #0
 8003108:	687b      	ldr	r3, [r7, #4]
 800310a:	60da      	str	r2, [r3, #12]
 800310c:	687b      	ldr	r3, [r7, #4]
 800310e:	8a1b      	ldrh	r3, [r3, #16]
 8003110:	b29b      	uxth	r3, r3
 8003112:	3301      	adds	r3, #1
 8003114:	b29a      	uxth	r2, r3
 8003116:	687b      	ldr	r3, [r7, #4]
 8003118:	821a      	strh	r2, [r3, #16]
 800311a:	2301      	movs	r3, #1
 800311c:	e000      	b.n	8003120 <FiFo_push+0x58>
 800311e:	2300      	movs	r3, #0
 8003120:	1c18      	adds	r0, r3, #0
 8003122:	46bd      	mov	sp, r7
 8003124:	b002      	add	sp, #8
 8003126:	bd80      	pop	{r7, pc}

08003128 <FiFo_pop>:
 8003128:	b580      	push	{r7, lr}
 800312a:	b082      	sub	sp, #8
 800312c:	af00      	add	r7, sp, #0
 800312e:	6078      	str	r0, [r7, #4]
 8003130:	6039      	str	r1, [r7, #0]
 8003132:	687b      	ldr	r3, [r7, #4]
 8003134:	8a1b      	ldrh	r3, [r3, #16]
 8003136:	b29b      	uxth	r3, r3
 8003138:	2b00      	cmp	r3, #0
 800313a:	d01d      	beq.n	8003178 <FiFo_pop+0x50>
 800313c:	687b      	ldr	r3, [r7, #4]
 800313e:	689a      	ldr	r2, [r3, #8]
 8003140:	687b      	ldr	r3, [r7, #4]
 8003142:	889b      	ldrh	r3, [r3, #4]
 8003144:	b29b      	uxth	r3, r3
 8003146:	6839      	ldr	r1, [r7, #0]
 8003148:	1c08      	adds	r0, r1, #0
 800314a:	1c11      	adds	r1, r2, #0
 800314c:	1c1a      	adds	r2, r3, #0
 800314e:	f000 fba3 	bl	8003898 <memcpy>
 8003152:	687b      	ldr	r3, [r7, #4]
 8003154:	689b      	ldr	r3, [r3, #8]
 8003156:	687a      	ldr	r2, [r7, #4]
 8003158:	1c10      	adds	r0, r2, #0
 800315a:	1c19      	adds	r1, r3, #0
 800315c:	f000 f812 	bl	8003184 <getNextPointerLocation>
 8003160:	1c02      	adds	r2, r0, #0
 8003162:	687b      	ldr	r3, [r7, #4]
 8003164:	609a      	str	r2, [r3, #8]
 8003166:	687b      	ldr	r3, [r7, #4]
 8003168:	8a1b      	ldrh	r3, [r3, #16]
 800316a:	b29b      	uxth	r3, r3
 800316c:	3b01      	subs	r3, #1
 800316e:	b29a      	uxth	r2, r3
 8003170:	687b      	ldr	r3, [r7, #4]
 8003172:	821a      	strh	r2, [r3, #16]
 8003174:	2301      	movs	r3, #1
 8003176:	e000      	b.n	800317a <FiFo_pop+0x52>
 8003178:	2300      	movs	r3, #0
 800317a:	1c18      	adds	r0, r3, #0
 800317c:	46bd      	mov	sp, r7
 800317e:	b002      	add	sp, #8
 8003180:	bd80      	pop	{r7, pc}
 8003182:	46c0      	nop			; (mov r8, r8)

08003184 <getNextPointerLocation>:
 8003184:	b580      	push	{r7, lr}
 8003186:	b082      	sub	sp, #8
 8003188:	af00      	add	r7, sp, #0
 800318a:	6078      	str	r0, [r7, #4]
 800318c:	6039      	str	r1, [r7, #0]
 800318e:	687b      	ldr	r3, [r7, #4]
 8003190:	681a      	ldr	r2, [r3, #0]
 8003192:	687b      	ldr	r3, [r7, #4]
 8003194:	8a5b      	ldrh	r3, [r3, #18]
 8003196:	b29b      	uxth	r3, r3
 8003198:	3b01      	subs	r3, #1
 800319a:	6879      	ldr	r1, [r7, #4]
 800319c:	8889      	ldrh	r1, [r1, #4]
 800319e:	b289      	uxth	r1, r1
 80031a0:	434b      	muls	r3, r1
 80031a2:	18d2      	adds	r2, r2, r3
 80031a4:	683b      	ldr	r3, [r7, #0]
 80031a6:	429a      	cmp	r2, r3
 80031a8:	d305      	bcc.n	80031b6 <getNextPointerLocation+0x32>
 80031aa:	687b      	ldr	r3, [r7, #4]
 80031ac:	889b      	ldrh	r3, [r3, #4]
 80031ae:	b29b      	uxth	r3, r3
 80031b0:	683a      	ldr	r2, [r7, #0]
 80031b2:	18d3      	adds	r3, r2, r3
 80031b4:	e001      	b.n	80031ba <getNextPointerLocation+0x36>
 80031b6:	687b      	ldr	r3, [r7, #4]
 80031b8:	681b      	ldr	r3, [r3, #0]
 80031ba:	1c18      	adds	r0, r3, #0
 80031bc:	46bd      	mov	sp, r7
 80031be:	b002      	add	sp, #8
 80031c0:	bd80      	pop	{r7, pc}
 80031c2:	46c0      	nop			; (mov r8, r8)

080031c4 <RecordingLight_init>:
 80031c4:	b580      	push	{r7, lr}
 80031c6:	af00      	add	r7, sp, #0
 80031c8:	f7ff fe50 	bl	8002e6c <Tim1_Pwm_init>
 80031cc:	f000 fa7a 	bl	80036c4 <USART_SM_init>
 80031d0:	4b05      	ldr	r3, [pc, #20]	; (80031e8 <RecordingLight_init+0x24>)
 80031d2:	1c18      	adds	r0, r3, #0
 80031d4:	f000 fa04 	bl	80035e0 <Settings_read>
 80031d8:	4b04      	ldr	r3, [pc, #16]	; (80031ec <RecordingLight_init+0x28>)
 80031da:	2200      	movs	r2, #0
 80031dc:	701a      	strb	r2, [r3, #0]
 80031de:	f000 f81d 	bl	800321c <update>
 80031e2:	46bd      	mov	sp, r7
 80031e4:	bd80      	pop	{r7, pc}
 80031e6:	46c0      	nop			; (mov r8, r8)
 80031e8:	2000007c 	.word	0x2000007c
 80031ec:	20000078 	.word	0x20000078

080031f0 <RecordingLight_tick>:
 80031f0:	b580      	push	{r7, lr}
 80031f2:	b084      	sub	sp, #16
 80031f4:	af00      	add	r7, sp, #0
 80031f6:	6078      	str	r0, [r7, #4]
 80031f8:	f000 fa88 	bl	800370c <USART_SM_tick>
 80031fc:	1c3b      	adds	r3, r7, #0
 80031fe:	3308      	adds	r3, #8
 8003200:	1c18      	adds	r0, r3, #0
 8003202:	f000 faa7 	bl	8003754 <USART_SM_getMessage>
 8003206:	1c03      	adds	r3, r0, #0
 8003208:	2b00      	cmp	r3, #0
 800320a:	d004      	beq.n	8003216 <RecordingLight_tick+0x26>
 800320c:	1c3b      	adds	r3, r7, #0
 800320e:	3308      	adds	r3, #8
 8003210:	1c18      	adds	r0, r3, #0
 8003212:	f000 f835 	bl	8003280 <handleCommand>
 8003216:	46bd      	mov	sp, r7
 8003218:	b004      	add	sp, #16
 800321a:	bd80      	pop	{r7, pc}

0800321c <update>:
 800321c:	b580      	push	{r7, lr}
 800321e:	af00      	add	r7, sp, #0
 8003220:	4b15      	ldr	r3, [pc, #84]	; (8003278 <update+0x5c>)
 8003222:	781b      	ldrb	r3, [r3, #0]
 8003224:	2b01      	cmp	r3, #1
 8003226:	d00e      	beq.n	8003246 <update+0x2a>
 8003228:	dc02      	bgt.n	8003230 <update+0x14>
 800322a:	2b00      	cmp	r3, #0
 800322c:	d005      	beq.n	800323a <update+0x1e>
 800322e:	e01c      	b.n	800326a <update+0x4e>
 8003230:	2b02      	cmp	r3, #2
 8003232:	d014      	beq.n	800325e <update+0x42>
 8003234:	2b03      	cmp	r3, #3
 8003236:	d00c      	beq.n	8003252 <update+0x36>
 8003238:	e017      	b.n	800326a <update+0x4e>
 800323a:	4b10      	ldr	r3, [pc, #64]	; (800327c <update+0x60>)
 800323c:	681b      	ldr	r3, [r3, #0]
 800323e:	1c18      	adds	r0, r3, #0
 8003240:	f000 f996 	bl	8003570 <setLedColor>
 8003244:	e015      	b.n	8003272 <update+0x56>
 8003246:	4b0d      	ldr	r3, [pc, #52]	; (800327c <update+0x60>)
 8003248:	685b      	ldr	r3, [r3, #4]
 800324a:	1c18      	adds	r0, r3, #0
 800324c:	f000 f990 	bl	8003570 <setLedColor>
 8003250:	e00f      	b.n	8003272 <update+0x56>
 8003252:	4b0a      	ldr	r3, [pc, #40]	; (800327c <update+0x60>)
 8003254:	68db      	ldr	r3, [r3, #12]
 8003256:	1c18      	adds	r0, r3, #0
 8003258:	f000 f98a 	bl	8003570 <setLedColor>
 800325c:	e009      	b.n	8003272 <update+0x56>
 800325e:	4b07      	ldr	r3, [pc, #28]	; (800327c <update+0x60>)
 8003260:	689b      	ldr	r3, [r3, #8]
 8003262:	1c18      	adds	r0, r3, #0
 8003264:	f000 f984 	bl	8003570 <setLedColor>
 8003268:	e003      	b.n	8003272 <update+0x56>
 800326a:	2000      	movs	r0, #0
 800326c:	f000 f980 	bl	8003570 <setLedColor>
 8003270:	46c0      	nop			; (mov r8, r8)
 8003272:	46bd      	mov	sp, r7
 8003274:	bd80      	pop	{r7, pc}
 8003276:	46c0      	nop			; (mov r8, r8)
 8003278:	20000078 	.word	0x20000078
 800327c:	2000007c 	.word	0x2000007c

08003280 <handleCommand>:
 8003280:	b580      	push	{r7, lr}
 8003282:	b084      	sub	sp, #16
 8003284:	af00      	add	r7, sp, #0
 8003286:	6078      	str	r0, [r7, #4]
 8003288:	1c3b      	adds	r3, r7, #0
 800328a:	330f      	adds	r3, #15
 800328c:	687a      	ldr	r2, [r7, #4]
 800328e:	7812      	ldrb	r2, [r2, #0]
 8003290:	701a      	strb	r2, [r3, #0]
 8003292:	1c3b      	adds	r3, r7, #0
 8003294:	330f      	adds	r3, #15
 8003296:	781b      	ldrb	r3, [r3, #0]
 8003298:	2b10      	cmp	r3, #16
 800329a:	d909      	bls.n	80032b0 <handleCommand+0x30>
 800329c:	1c3b      	adds	r3, r7, #0
 800329e:	330f      	adds	r3, #15
 80032a0:	781b      	ldrb	r3, [r3, #0]
 80032a2:	2b14      	cmp	r3, #20
 80032a4:	d804      	bhi.n	80032b0 <handleCommand+0x30>
 80032a6:	687b      	ldr	r3, [r7, #4]
 80032a8:	1c18      	adds	r0, r3, #0
 80032aa:	f000 f891 	bl	80033d0 <setState>
 80032ae:	e046      	b.n	800333e <handleCommand+0xbe>
 80032b0:	1c3b      	adds	r3, r7, #0
 80032b2:	330f      	adds	r3, #15
 80032b4:	781b      	ldrb	r3, [r3, #0]
 80032b6:	2b21      	cmp	r3, #33	; 0x21
 80032b8:	d104      	bne.n	80032c4 <handleCommand+0x44>
 80032ba:	687b      	ldr	r3, [r7, #4]
 80032bc:	1c18      	adds	r0, r3, #0
 80032be:	f000 f89f 	bl	8003400 <getState>
 80032c2:	e03c      	b.n	800333e <handleCommand+0xbe>
 80032c4:	1c3b      	adds	r3, r7, #0
 80032c6:	330f      	adds	r3, #15
 80032c8:	781b      	ldrb	r3, [r3, #0]
 80032ca:	2b40      	cmp	r3, #64	; 0x40
 80032cc:	d909      	bls.n	80032e2 <handleCommand+0x62>
 80032ce:	1c3b      	adds	r3, r7, #0
 80032d0:	330f      	adds	r3, #15
 80032d2:	781b      	ldrb	r3, [r3, #0]
 80032d4:	2b44      	cmp	r3, #68	; 0x44
 80032d6:	d804      	bhi.n	80032e2 <handleCommand+0x62>
 80032d8:	687b      	ldr	r3, [r7, #4]
 80032da:	1c18      	adds	r0, r3, #0
 80032dc:	f000 f8a2 	bl	8003424 <setColor>
 80032e0:	e02d      	b.n	800333e <handleCommand+0xbe>
 80032e2:	1c3b      	adds	r3, r7, #0
 80032e4:	330f      	adds	r3, #15
 80032e6:	781b      	ldrb	r3, [r3, #0]
 80032e8:	2b50      	cmp	r3, #80	; 0x50
 80032ea:	d909      	bls.n	8003300 <handleCommand+0x80>
 80032ec:	1c3b      	adds	r3, r7, #0
 80032ee:	330f      	adds	r3, #15
 80032f0:	781b      	ldrb	r3, [r3, #0]
 80032f2:	2b54      	cmp	r3, #84	; 0x54
 80032f4:	d804      	bhi.n	8003300 <handleCommand+0x80>
 80032f6:	687b      	ldr	r3, [r7, #4]
 80032f8:	1c18      	adds	r0, r3, #0
 80032fa:	f000 f8f1 	bl	80034e0 <getColor>
 80032fe:	e01e      	b.n	800333e <handleCommand+0xbe>
 8003300:	1c3b      	adds	r3, r7, #0
 8003302:	330f      	adds	r3, #15
 8003304:	781b      	ldrb	r3, [r3, #0]
 8003306:	2bff      	cmp	r3, #255	; 0xff
 8003308:	d104      	bne.n	8003314 <handleCommand+0x94>
 800330a:	687b      	ldr	r3, [r7, #4]
 800330c:	1c18      	adds	r0, r3, #0
 800330e:	f000 f84f 	bl	80033b0 <resetStateMachine>
 8003312:	e014      	b.n	800333e <handleCommand+0xbe>
 8003314:	1c3b      	adds	r3, r7, #0
 8003316:	330f      	adds	r3, #15
 8003318:	781b      	ldrb	r3, [r3, #0]
 800331a:	2b00      	cmp	r3, #0
 800331c:	d106      	bne.n	800332c <handleCommand+0xac>
 800331e:	687b      	ldr	r3, [r7, #4]
 8003320:	781b      	ldrb	r3, [r3, #0]
 8003322:	1c18      	adds	r0, r3, #0
 8003324:	2100      	movs	r1, #0
 8003326:	f000 f80d 	bl	8003344 <sendResponse>
 800332a:	e008      	b.n	800333e <handleCommand+0xbe>
 800332c:	1c3b      	adds	r3, r7, #0
 800332e:	330f      	adds	r3, #15
 8003330:	781b      	ldrb	r3, [r3, #0]
 8003332:	2b01      	cmp	r3, #1
 8003334:	d103      	bne.n	800333e <handleCommand+0xbe>
 8003336:	687b      	ldr	r3, [r7, #4]
 8003338:	1c18      	adds	r0, r3, #0
 800333a:	f000 f90b 	bl	8003554 <sendInfo>
 800333e:	46bd      	mov	sp, r7
 8003340:	b004      	add	sp, #16
 8003342:	bd80      	pop	{r7, pc}

08003344 <sendResponse>:
 8003344:	b590      	push	{r4, r7, lr}
 8003346:	b087      	sub	sp, #28
 8003348:	af02      	add	r7, sp, #8
 800334a:	1c02      	adds	r2, r0, #0
 800334c:	6039      	str	r1, [r7, #0]
 800334e:	1dfb      	adds	r3, r7, #7
 8003350:	701a      	strb	r2, [r3, #0]
 8003352:	6838      	ldr	r0, [r7, #0]
 8003354:	1c39      	adds	r1, r7, #0
 8003356:	310f      	adds	r1, #15
 8003358:	1c3a      	adds	r2, r7, #0
 800335a:	320e      	adds	r2, #14
 800335c:	1c3b      	adds	r3, r7, #0
 800335e:	330d      	adds	r3, #13
 8003360:	1c3c      	adds	r4, r7, #0
 8003362:	340c      	adds	r4, #12
 8003364:	9400      	str	r4, [sp, #0]
 8003366:	f7ff fe5d 	bl	8003024 <BinUtils_get4BytesFrom32Bit>
 800336a:	202b      	movs	r0, #43	; 0x2b
 800336c:	f7ff fd36 	bl	8002ddc <USART1_sendByte>
 8003370:	1dfb      	adds	r3, r7, #7
 8003372:	781b      	ldrb	r3, [r3, #0]
 8003374:	1c18      	adds	r0, r3, #0
 8003376:	f7ff fd31 	bl	8002ddc <USART1_sendByte>
 800337a:	1c3b      	adds	r3, r7, #0
 800337c:	330f      	adds	r3, #15
 800337e:	781b      	ldrb	r3, [r3, #0]
 8003380:	1c18      	adds	r0, r3, #0
 8003382:	f7ff fd2b 	bl	8002ddc <USART1_sendByte>
 8003386:	1c3b      	adds	r3, r7, #0
 8003388:	330e      	adds	r3, #14
 800338a:	781b      	ldrb	r3, [r3, #0]
 800338c:	1c18      	adds	r0, r3, #0
 800338e:	f7ff fd25 	bl	8002ddc <USART1_sendByte>
 8003392:	1c3b      	adds	r3, r7, #0
 8003394:	330d      	adds	r3, #13
 8003396:	781b      	ldrb	r3, [r3, #0]
 8003398:	1c18      	adds	r0, r3, #0
 800339a:	f7ff fd1f 	bl	8002ddc <USART1_sendByte>
 800339e:	1c3b      	adds	r3, r7, #0
 80033a0:	330c      	adds	r3, #12
 80033a2:	781b      	ldrb	r3, [r3, #0]
 80033a4:	1c18      	adds	r0, r3, #0
 80033a6:	f7ff fd19 	bl	8002ddc <USART1_sendByte>
 80033aa:	46bd      	mov	sp, r7
 80033ac:	b005      	add	sp, #20
 80033ae:	bd90      	pop	{r4, r7, pc}

080033b0 <resetStateMachine>:
 80033b0:	b580      	push	{r7, lr}
 80033b2:	af00      	add	r7, sp, #0
 80033b4:	4b05      	ldr	r3, [pc, #20]	; (80033cc <resetStateMachine+0x1c>)
 80033b6:	2200      	movs	r2, #0
 80033b8:	701a      	strb	r2, [r3, #0]
 80033ba:	f7ff ff2f 	bl	800321c <update>
 80033be:	20ff      	movs	r0, #255	; 0xff
 80033c0:	2100      	movs	r1, #0
 80033c2:	f7ff ffbf 	bl	8003344 <sendResponse>
 80033c6:	46bd      	mov	sp, r7
 80033c8:	bd80      	pop	{r7, pc}
 80033ca:	46c0      	nop			; (mov r8, r8)
 80033cc:	20000078 	.word	0x20000078

080033d0 <setState>:
 80033d0:	b580      	push	{r7, lr}
 80033d2:	b082      	sub	sp, #8
 80033d4:	af00      	add	r7, sp, #0
 80033d6:	6078      	str	r0, [r7, #4]
 80033d8:	687b      	ldr	r3, [r7, #4]
 80033da:	781b      	ldrb	r3, [r3, #0]
 80033dc:	3b11      	subs	r3, #17
 80033de:	b2da      	uxtb	r2, r3
 80033e0:	4b06      	ldr	r3, [pc, #24]	; (80033fc <setState+0x2c>)
 80033e2:	701a      	strb	r2, [r3, #0]
 80033e4:	f7ff ff1a 	bl	800321c <update>
 80033e8:	687b      	ldr	r3, [r7, #4]
 80033ea:	781b      	ldrb	r3, [r3, #0]
 80033ec:	1c18      	adds	r0, r3, #0
 80033ee:	2100      	movs	r1, #0
 80033f0:	f7ff ffa8 	bl	8003344 <sendResponse>
 80033f4:	46bd      	mov	sp, r7
 80033f6:	b002      	add	sp, #8
 80033f8:	bd80      	pop	{r7, pc}
 80033fa:	46c0      	nop			; (mov r8, r8)
 80033fc:	20000078 	.word	0x20000078

08003400 <getState>:
 8003400:	b580      	push	{r7, lr}
 8003402:	b082      	sub	sp, #8
 8003404:	af00      	add	r7, sp, #0
 8003406:	6078      	str	r0, [r7, #4]
 8003408:	687b      	ldr	r3, [r7, #4]
 800340a:	781a      	ldrb	r2, [r3, #0]
 800340c:	4b04      	ldr	r3, [pc, #16]	; (8003420 <getState+0x20>)
 800340e:	781b      	ldrb	r3, [r3, #0]
 8003410:	1c10      	adds	r0, r2, #0
 8003412:	1c19      	adds	r1, r3, #0
 8003414:	f7ff ff96 	bl	8003344 <sendResponse>
 8003418:	46bd      	mov	sp, r7
 800341a:	b002      	add	sp, #8
 800341c:	bd80      	pop	{r7, pc}
 800341e:	46c0      	nop			; (mov r8, r8)
 8003420:	20000078 	.word	0x20000078

08003424 <setColor>:
 8003424:	b580      	push	{r7, lr}
 8003426:	b082      	sub	sp, #8
 8003428:	af00      	add	r7, sp, #0
 800342a:	6078      	str	r0, [r7, #4]
 800342c:	687b      	ldr	r3, [r7, #4]
 800342e:	781b      	ldrb	r3, [r3, #0]
 8003430:	2b42      	cmp	r3, #66	; 0x42
 8003432:	d017      	beq.n	8003464 <setColor+0x40>
 8003434:	dc02      	bgt.n	800343c <setColor+0x18>
 8003436:	2b41      	cmp	r3, #65	; 0x41
 8003438:	d005      	beq.n	8003446 <setColor+0x22>
 800343a:	e040      	b.n	80034be <setColor+0x9a>
 800343c:	2b43      	cmp	r3, #67	; 0x43
 800343e:	d02f      	beq.n	80034a0 <setColor+0x7c>
 8003440:	2b44      	cmp	r3, #68	; 0x44
 8003442:	d01e      	beq.n	8003482 <setColor+0x5e>
 8003444:	e03b      	b.n	80034be <setColor+0x9a>
 8003446:	687b      	ldr	r3, [r7, #4]
 8003448:	785a      	ldrb	r2, [r3, #1]
 800344a:	7899      	ldrb	r1, [r3, #2]
 800344c:	0209      	lsls	r1, r1, #8
 800344e:	430a      	orrs	r2, r1
 8003450:	78d9      	ldrb	r1, [r3, #3]
 8003452:	0409      	lsls	r1, r1, #16
 8003454:	430a      	orrs	r2, r1
 8003456:	791b      	ldrb	r3, [r3, #4]
 8003458:	061b      	lsls	r3, r3, #24
 800345a:	4313      	orrs	r3, r2
 800345c:	1c1a      	adds	r2, r3, #0
 800345e:	4b1f      	ldr	r3, [pc, #124]	; (80034dc <setColor+0xb8>)
 8003460:	601a      	str	r2, [r3, #0]
 8003462:	e02c      	b.n	80034be <setColor+0x9a>
 8003464:	687b      	ldr	r3, [r7, #4]
 8003466:	785a      	ldrb	r2, [r3, #1]
 8003468:	7899      	ldrb	r1, [r3, #2]
 800346a:	0209      	lsls	r1, r1, #8
 800346c:	430a      	orrs	r2, r1
 800346e:	78d9      	ldrb	r1, [r3, #3]
 8003470:	0409      	lsls	r1, r1, #16
 8003472:	430a      	orrs	r2, r1
 8003474:	791b      	ldrb	r3, [r3, #4]
 8003476:	061b      	lsls	r3, r3, #24
 8003478:	4313      	orrs	r3, r2
 800347a:	1c1a      	adds	r2, r3, #0
 800347c:	4b17      	ldr	r3, [pc, #92]	; (80034dc <setColor+0xb8>)
 800347e:	605a      	str	r2, [r3, #4]
 8003480:	e01d      	b.n	80034be <setColor+0x9a>
 8003482:	687b      	ldr	r3, [r7, #4]
 8003484:	785a      	ldrb	r2, [r3, #1]
 8003486:	7899      	ldrb	r1, [r3, #2]
 8003488:	0209      	lsls	r1, r1, #8
 800348a:	430a      	orrs	r2, r1
 800348c:	78d9      	ldrb	r1, [r3, #3]
 800348e:	0409      	lsls	r1, r1, #16
 8003490:	430a      	orrs	r2, r1
 8003492:	791b      	ldrb	r3, [r3, #4]
 8003494:	061b      	lsls	r3, r3, #24
 8003496:	4313      	orrs	r3, r2
 8003498:	1c1a      	adds	r2, r3, #0
 800349a:	4b10      	ldr	r3, [pc, #64]	; (80034dc <setColor+0xb8>)
 800349c:	605a      	str	r2, [r3, #4]
 800349e:	e00e      	b.n	80034be <setColor+0x9a>
 80034a0:	687b      	ldr	r3, [r7, #4]
 80034a2:	785a      	ldrb	r2, [r3, #1]
 80034a4:	7899      	ldrb	r1, [r3, #2]
 80034a6:	0209      	lsls	r1, r1, #8
 80034a8:	430a      	orrs	r2, r1
 80034aa:	78d9      	ldrb	r1, [r3, #3]
 80034ac:	0409      	lsls	r1, r1, #16
 80034ae:	430a      	orrs	r2, r1
 80034b0:	791b      	ldrb	r3, [r3, #4]
 80034b2:	061b      	lsls	r3, r3, #24
 80034b4:	4313      	orrs	r3, r2
 80034b6:	1c1a      	adds	r2, r3, #0
 80034b8:	4b08      	ldr	r3, [pc, #32]	; (80034dc <setColor+0xb8>)
 80034ba:	605a      	str	r2, [r3, #4]
 80034bc:	46c0      	nop			; (mov r8, r8)
 80034be:	f7ff fead 	bl	800321c <update>
 80034c2:	4b06      	ldr	r3, [pc, #24]	; (80034dc <setColor+0xb8>)
 80034c4:	1c18      	adds	r0, r3, #0
 80034c6:	f000 f8c9 	bl	800365c <Settings_write>
 80034ca:	687b      	ldr	r3, [r7, #4]
 80034cc:	781b      	ldrb	r3, [r3, #0]
 80034ce:	1c18      	adds	r0, r3, #0
 80034d0:	2100      	movs	r1, #0
 80034d2:	f7ff ff37 	bl	8003344 <sendResponse>
 80034d6:	46bd      	mov	sp, r7
 80034d8:	b002      	add	sp, #8
 80034da:	bd80      	pop	{r7, pc}
 80034dc:	2000007c 	.word	0x2000007c

080034e0 <getColor>:
 80034e0:	b580      	push	{r7, lr}
 80034e2:	b082      	sub	sp, #8
 80034e4:	af00      	add	r7, sp, #0
 80034e6:	6078      	str	r0, [r7, #4]
 80034e8:	687b      	ldr	r3, [r7, #4]
 80034ea:	781b      	ldrb	r3, [r3, #0]
 80034ec:	2b52      	cmp	r3, #82	; 0x52
 80034ee:	d011      	beq.n	8003514 <getColor+0x34>
 80034f0:	dc02      	bgt.n	80034f8 <getColor+0x18>
 80034f2:	2b51      	cmp	r3, #81	; 0x51
 80034f4:	d005      	beq.n	8003502 <getColor+0x22>
 80034f6:	e028      	b.n	800354a <getColor+0x6a>
 80034f8:	2b53      	cmp	r3, #83	; 0x53
 80034fa:	d01d      	beq.n	8003538 <getColor+0x58>
 80034fc:	2b54      	cmp	r3, #84	; 0x54
 80034fe:	d012      	beq.n	8003526 <getColor+0x46>
 8003500:	e023      	b.n	800354a <getColor+0x6a>
 8003502:	687b      	ldr	r3, [r7, #4]
 8003504:	781a      	ldrb	r2, [r3, #0]
 8003506:	4b12      	ldr	r3, [pc, #72]	; (8003550 <getColor+0x70>)
 8003508:	681b      	ldr	r3, [r3, #0]
 800350a:	1c10      	adds	r0, r2, #0
 800350c:	1c19      	adds	r1, r3, #0
 800350e:	f7ff ff19 	bl	8003344 <sendResponse>
 8003512:	e01a      	b.n	800354a <getColor+0x6a>
 8003514:	687b      	ldr	r3, [r7, #4]
 8003516:	781a      	ldrb	r2, [r3, #0]
 8003518:	4b0d      	ldr	r3, [pc, #52]	; (8003550 <getColor+0x70>)
 800351a:	685b      	ldr	r3, [r3, #4]
 800351c:	1c10      	adds	r0, r2, #0
 800351e:	1c19      	adds	r1, r3, #0
 8003520:	f7ff ff10 	bl	8003344 <sendResponse>
 8003524:	e011      	b.n	800354a <getColor+0x6a>
 8003526:	687b      	ldr	r3, [r7, #4]
 8003528:	781a      	ldrb	r2, [r3, #0]
 800352a:	4b09      	ldr	r3, [pc, #36]	; (8003550 <getColor+0x70>)
 800352c:	68db      	ldr	r3, [r3, #12]
 800352e:	1c10      	adds	r0, r2, #0
 8003530:	1c19      	adds	r1, r3, #0
 8003532:	f7ff ff07 	bl	8003344 <sendResponse>
 8003536:	e008      	b.n	800354a <getColor+0x6a>
 8003538:	687b      	ldr	r3, [r7, #4]
 800353a:	781a      	ldrb	r2, [r3, #0]
 800353c:	4b04      	ldr	r3, [pc, #16]	; (8003550 <getColor+0x70>)
 800353e:	689b      	ldr	r3, [r3, #8]
 8003540:	1c10      	adds	r0, r2, #0
 8003542:	1c19      	adds	r1, r3, #0
 8003544:	f7ff fefe 	bl	8003344 <sendResponse>
 8003548:	46c0      	nop			; (mov r8, r8)
 800354a:	46bd      	mov	sp, r7
 800354c:	b002      	add	sp, #8
 800354e:	bd80      	pop	{r7, pc}
 8003550:	2000007c 	.word	0x2000007c

08003554 <sendInfo>:
 8003554:	b580      	push	{r7, lr}
 8003556:	b082      	sub	sp, #8
 8003558:	af00      	add	r7, sp, #0
 800355a:	6078      	str	r0, [r7, #4]
 800355c:	687b      	ldr	r3, [r7, #4]
 800355e:	781b      	ldrb	r3, [r3, #0]
 8003560:	1c18      	adds	r0, r3, #0
 8003562:	2100      	movs	r1, #0
 8003564:	f7ff feee 	bl	8003344 <sendResponse>
 8003568:	46bd      	mov	sp, r7
 800356a:	b002      	add	sp, #8
 800356c:	bd80      	pop	{r7, pc}
 800356e:	46c0      	nop			; (mov r8, r8)

08003570 <setLedColor>:
 8003570:	b590      	push	{r4, r7, lr}
 8003572:	b087      	sub	sp, #28
 8003574:	af02      	add	r7, sp, #8
 8003576:	6078      	str	r0, [r7, #4]
 8003578:	6878      	ldr	r0, [r7, #4]
 800357a:	1c39      	adds	r1, r7, #0
 800357c:	310f      	adds	r1, #15
 800357e:	1c3a      	adds	r2, r7, #0
 8003580:	320e      	adds	r2, #14
 8003582:	1c3b      	adds	r3, r7, #0
 8003584:	330d      	adds	r3, #13
 8003586:	1c3c      	adds	r4, r7, #0
 8003588:	340c      	adds	r4, #12
 800358a:	9400      	str	r4, [sp, #0]
 800358c:	f7ff fd4a 	bl	8003024 <BinUtils_get4BytesFrom32Bit>
 8003590:	1c3b      	adds	r3, r7, #0
 8003592:	330f      	adds	r3, #15
 8003594:	781a      	ldrb	r2, [r3, #0]
 8003596:	1c3b      	adds	r3, r7, #0
 8003598:	3308      	adds	r3, #8
 800359a:	701a      	strb	r2, [r3, #0]
 800359c:	1c3b      	adds	r3, r7, #0
 800359e:	330e      	adds	r3, #14
 80035a0:	781a      	ldrb	r2, [r3, #0]
 80035a2:	1c3b      	adds	r3, r7, #0
 80035a4:	3308      	adds	r3, #8
 80035a6:	705a      	strb	r2, [r3, #1]
 80035a8:	1c3b      	adds	r3, r7, #0
 80035aa:	330d      	adds	r3, #13
 80035ac:	781a      	ldrb	r2, [r3, #0]
 80035ae:	1c3b      	adds	r3, r7, #0
 80035b0:	3308      	adds	r3, #8
 80035b2:	709a      	strb	r2, [r3, #2]
 80035b4:	1c3b      	adds	r3, r7, #0
 80035b6:	330f      	adds	r3, #15
 80035b8:	781b      	ldrb	r3, [r3, #0]
 80035ba:	1c18      	adds	r0, r3, #0
 80035bc:	f7ff fcfc 	bl	8002fb8 <Tim1_Pwm_setValueCh1>
 80035c0:	1c3b      	adds	r3, r7, #0
 80035c2:	330e      	adds	r3, #14
 80035c4:	781b      	ldrb	r3, [r3, #0]
 80035c6:	1c18      	adds	r0, r3, #0
 80035c8:	f7ff fd08 	bl	8002fdc <Tim1_Pwm_setValueCh2>
 80035cc:	1c3b      	adds	r3, r7, #0
 80035ce:	330d      	adds	r3, #13
 80035d0:	781b      	ldrb	r3, [r3, #0]
 80035d2:	1c18      	adds	r0, r3, #0
 80035d4:	f7ff fd14 	bl	8003000 <Tim1_Pwm_setValueCh3>
 80035d8:	46bd      	mov	sp, r7
 80035da:	b005      	add	sp, #20
 80035dc:	bd90      	pop	{r4, r7, pc}
 80035de:	46c0      	nop			; (mov r8, r8)

080035e0 <Settings_read>:
 80035e0:	b580      	push	{r7, lr}
 80035e2:	b088      	sub	sp, #32
 80035e4:	af00      	add	r7, sp, #0
 80035e6:	6078      	str	r0, [r7, #4]
 80035e8:	4b16      	ldr	r3, [pc, #88]	; (8003644 <Settings_read+0x64>)
 80035ea:	781b      	ldrb	r3, [r3, #0]
 80035ec:	2201      	movs	r2, #1
 80035ee:	4053      	eors	r3, r2
 80035f0:	b2db      	uxtb	r3, r3
 80035f2:	2b00      	cmp	r3, #0
 80035f4:	d001      	beq.n	80035fa <Settings_read+0x1a>
 80035f6:	f000 f859 	bl	80036ac <init>
 80035fa:	1c3b      	adds	r3, r7, #0
 80035fc:	330c      	adds	r3, #12
 80035fe:	1c18      	adds	r0, r3, #0
 8003600:	2114      	movs	r1, #20
 8003602:	f7ff fa17 	bl	8002a34 <Flash_readFromDataPage>
 8003606:	1c3b      	adds	r3, r7, #0
 8003608:	330c      	adds	r3, #12
 800360a:	681a      	ldr	r2, [r3, #0]
 800360c:	4b0e      	ldr	r3, [pc, #56]	; (8003648 <Settings_read+0x68>)
 800360e:	429a      	cmp	r2, r3
 8003610:	d109      	bne.n	8003626 <Settings_read+0x46>
 8003612:	687a      	ldr	r2, [r7, #4]
 8003614:	1c3b      	adds	r3, r7, #0
 8003616:	330c      	adds	r3, #12
 8003618:	3304      	adds	r3, #4
 800361a:	1c10      	adds	r0, r2, #0
 800361c:	1c19      	adds	r1, r3, #0
 800361e:	2210      	movs	r2, #16
 8003620:	f000 f93a 	bl	8003898 <memcpy>
 8003624:	e00b      	b.n	800363e <Settings_read+0x5e>
 8003626:	687b      	ldr	r3, [r7, #4]
 8003628:	4a08      	ldr	r2, [pc, #32]	; (800364c <Settings_read+0x6c>)
 800362a:	601a      	str	r2, [r3, #0]
 800362c:	687b      	ldr	r3, [r7, #4]
 800362e:	4a08      	ldr	r2, [pc, #32]	; (8003650 <Settings_read+0x70>)
 8003630:	605a      	str	r2, [r3, #4]
 8003632:	687b      	ldr	r3, [r7, #4]
 8003634:	4a07      	ldr	r2, [pc, #28]	; (8003654 <Settings_read+0x74>)
 8003636:	609a      	str	r2, [r3, #8]
 8003638:	687b      	ldr	r3, [r7, #4]
 800363a:	4a07      	ldr	r2, [pc, #28]	; (8003658 <Settings_read+0x78>)
 800363c:	60da      	str	r2, [r3, #12]
 800363e:	46bd      	mov	sp, r7
 8003640:	b008      	add	sp, #32
 8003642:	bd80      	pop	{r7, pc}
 8003644:	2000008c 	.word	0x2000008c
 8003648:	5265634c 	.word	0x5265634c
 800364c:	afafafff 	.word	0xafafafff
 8003650:	ddff00ff 	.word	0xddff00ff
 8003654:	ff0000ff 	.word	0xff0000ff
 8003658:	0000ffff 	.word	0x0000ffff

0800365c <Settings_write>:
 800365c:	b580      	push	{r7, lr}
 800365e:	b088      	sub	sp, #32
 8003660:	af00      	add	r7, sp, #0
 8003662:	6078      	str	r0, [r7, #4]
 8003664:	4b0f      	ldr	r3, [pc, #60]	; (80036a4 <Settings_write+0x48>)
 8003666:	781b      	ldrb	r3, [r3, #0]
 8003668:	2201      	movs	r2, #1
 800366a:	4053      	eors	r3, r2
 800366c:	b2db      	uxtb	r3, r3
 800366e:	2b00      	cmp	r3, #0
 8003670:	d001      	beq.n	8003676 <Settings_write+0x1a>
 8003672:	f000 f81b 	bl	80036ac <init>
 8003676:	1c3b      	adds	r3, r7, #0
 8003678:	330c      	adds	r3, #12
 800367a:	1d1a      	adds	r2, r3, #4
 800367c:	687b      	ldr	r3, [r7, #4]
 800367e:	1c10      	adds	r0, r2, #0
 8003680:	1c19      	adds	r1, r3, #0
 8003682:	2210      	movs	r2, #16
 8003684:	f000 f908 	bl	8003898 <memcpy>
 8003688:	1c3b      	adds	r3, r7, #0
 800368a:	330c      	adds	r3, #12
 800368c:	4a06      	ldr	r2, [pc, #24]	; (80036a8 <Settings_write+0x4c>)
 800368e:	601a      	str	r2, [r3, #0]
 8003690:	1c3b      	adds	r3, r7, #0
 8003692:	330c      	adds	r3, #12
 8003694:	1c18      	adds	r0, r3, #0
 8003696:	2114      	movs	r1, #20
 8003698:	f7ff f95a 	bl	8002950 <Flash_writeToDataPage>
 800369c:	46bd      	mov	sp, r7
 800369e:	b008      	add	sp, #32
 80036a0:	bd80      	pop	{r7, pc}
 80036a2:	46c0      	nop			; (mov r8, r8)
 80036a4:	2000008c 	.word	0x2000008c
 80036a8:	5265634c 	.word	0x5265634c

080036ac <init>:
 80036ac:	b580      	push	{r7, lr}
 80036ae:	af00      	add	r7, sp, #0
 80036b0:	4b03      	ldr	r3, [pc, #12]	; (80036c0 <init+0x14>)
 80036b2:	2201      	movs	r2, #1
 80036b4:	701a      	strb	r2, [r3, #0]
 80036b6:	f7ff f945 	bl	8002944 <Flash_init>
 80036ba:	46bd      	mov	sp, r7
 80036bc:	bd80      	pop	{r7, pc}
 80036be:	46c0      	nop			; (mov r8, r8)
 80036c0:	2000008c 	.word	0x2000008c

080036c4 <USART_SM_init>:
 80036c4:	b580      	push	{r7, lr}
 80036c6:	af00      	add	r7, sp, #0
 80036c8:	4a0a      	ldr	r2, [pc, #40]	; (80036f4 <USART_SM_init+0x30>)
 80036ca:	4b0b      	ldr	r3, [pc, #44]	; (80036f8 <USART_SM_init+0x34>)
 80036cc:	1c10      	adds	r0, r2, #0
 80036ce:	1c19      	adds	r1, r3, #0
 80036d0:	2201      	movs	r2, #1
 80036d2:	2380      	movs	r3, #128	; 0x80
 80036d4:	f7ff fcca 	bl	800306c <FiFo_init>
 80036d8:	4b08      	ldr	r3, [pc, #32]	; (80036fc <USART_SM_init+0x38>)
 80036da:	2200      	movs	r2, #0
 80036dc:	701a      	strb	r2, [r3, #0]
 80036de:	4b08      	ldr	r3, [pc, #32]	; (8003700 <USART_SM_init+0x3c>)
 80036e0:	4a08      	ldr	r2, [pc, #32]	; (8003704 <USART_SM_init+0x40>)
 80036e2:	601a      	str	r2, [r3, #0]
 80036e4:	4b08      	ldr	r3, [pc, #32]	; (8003708 <USART_SM_init+0x44>)
 80036e6:	1c18      	adds	r0, r3, #0
 80036e8:	f7ff fb6c 	bl	8002dc4 <USART1_setByteReceivedCallback>
 80036ec:	f7ff faf0 	bl	8002cd0 <USART1_init>
 80036f0:	46bd      	mov	sp, r7
 80036f2:	bd80      	pop	{r7, pc}
 80036f4:	2000011c 	.word	0x2000011c
 80036f8:	2000009c 	.word	0x2000009c
 80036fc:	20000098 	.word	0x20000098
 8003700:	20000134 	.word	0x20000134
 8003704:	080037b5 	.word	0x080037b5
 8003708:	08003791 	.word	0x08003791

0800370c <USART_SM_tick>:
 800370c:	b580      	push	{r7, lr}
 800370e:	b082      	sub	sp, #8
 8003710:	af00      	add	r7, sp, #0
 8003712:	e005      	b.n	8003720 <USART_SM_tick+0x14>
 8003714:	4b0c      	ldr	r3, [pc, #48]	; (8003748 <USART_SM_tick+0x3c>)
 8003716:	681b      	ldr	r3, [r3, #0]
 8003718:	1dfa      	adds	r2, r7, #7
 800371a:	7812      	ldrb	r2, [r2, #0]
 800371c:	1c10      	adds	r0, r2, #0
 800371e:	4798      	blx	r3
 8003720:	4a0a      	ldr	r2, [pc, #40]	; (800374c <USART_SM_tick+0x40>)
 8003722:	1dfb      	adds	r3, r7, #7
 8003724:	1c10      	adds	r0, r2, #0
 8003726:	1c19      	adds	r1, r3, #0
 8003728:	f7ff fcfe 	bl	8003128 <FiFo_pop>
 800372c:	1c03      	adds	r3, r0, #0
 800372e:	2b00      	cmp	r3, #0
 8003730:	d006      	beq.n	8003740 <USART_SM_tick+0x34>
 8003732:	4b07      	ldr	r3, [pc, #28]	; (8003750 <USART_SM_tick+0x44>)
 8003734:	781b      	ldrb	r3, [r3, #0]
 8003736:	2201      	movs	r2, #1
 8003738:	4053      	eors	r3, r2
 800373a:	b2db      	uxtb	r3, r3
 800373c:	2b00      	cmp	r3, #0
 800373e:	d1e9      	bne.n	8003714 <USART_SM_tick+0x8>
 8003740:	46bd      	mov	sp, r7
 8003742:	b002      	add	sp, #8
 8003744:	bd80      	pop	{r7, pc}
 8003746:	46c0      	nop			; (mov r8, r8)
 8003748:	20000134 	.word	0x20000134
 800374c:	2000011c 	.word	0x2000011c
 8003750:	20000098 	.word	0x20000098

08003754 <USART_SM_getMessage>:
 8003754:	b580      	push	{r7, lr}
 8003756:	b082      	sub	sp, #8
 8003758:	af00      	add	r7, sp, #0
 800375a:	6078      	str	r0, [r7, #4]
 800375c:	4b0a      	ldr	r3, [pc, #40]	; (8003788 <USART_SM_getMessage+0x34>)
 800375e:	781b      	ldrb	r3, [r3, #0]
 8003760:	2b00      	cmp	r3, #0
 8003762:	d00b      	beq.n	800377c <USART_SM_getMessage+0x28>
 8003764:	4b08      	ldr	r3, [pc, #32]	; (8003788 <USART_SM_getMessage+0x34>)
 8003766:	2200      	movs	r2, #0
 8003768:	701a      	strb	r2, [r3, #0]
 800376a:	687a      	ldr	r2, [r7, #4]
 800376c:	4b07      	ldr	r3, [pc, #28]	; (800378c <USART_SM_getMessage+0x38>)
 800376e:	1c10      	adds	r0, r2, #0
 8003770:	1c19      	adds	r1, r3, #0
 8003772:	2208      	movs	r2, #8
 8003774:	f000 f890 	bl	8003898 <memcpy>
 8003778:	2301      	movs	r3, #1
 800377a:	e000      	b.n	800377e <USART_SM_getMessage+0x2a>
 800377c:	2300      	movs	r3, #0
 800377e:	1c18      	adds	r0, r3, #0
 8003780:	46bd      	mov	sp, r7
 8003782:	b002      	add	sp, #8
 8003784:	bd80      	pop	{r7, pc}
 8003786:	46c0      	nop			; (mov r8, r8)
 8003788:	20000098 	.word	0x20000098
 800378c:	20000090 	.word	0x20000090

08003790 <receiveByteCallback>:
 8003790:	b580      	push	{r7, lr}
 8003792:	b082      	sub	sp, #8
 8003794:	af00      	add	r7, sp, #0
 8003796:	1c02      	adds	r2, r0, #0
 8003798:	1dfb      	adds	r3, r7, #7
 800379a:	701a      	strb	r2, [r3, #0]
 800379c:	4a04      	ldr	r2, [pc, #16]	; (80037b0 <receiveByteCallback+0x20>)
 800379e:	1dfb      	adds	r3, r7, #7
 80037a0:	1c10      	adds	r0, r2, #0
 80037a2:	1c19      	adds	r1, r3, #0
 80037a4:	f7ff fc90 	bl	80030c8 <FiFo_push>
 80037a8:	46bd      	mov	sp, r7
 80037aa:	b002      	add	sp, #8
 80037ac:	bd80      	pop	{r7, pc}
 80037ae:	46c0      	nop			; (mov r8, r8)
 80037b0:	2000011c 	.word	0x2000011c

080037b4 <readHeader>:
 80037b4:	b580      	push	{r7, lr}
 80037b6:	b082      	sub	sp, #8
 80037b8:	af00      	add	r7, sp, #0
 80037ba:	1c02      	adds	r2, r0, #0
 80037bc:	1dfb      	adds	r3, r7, #7
 80037be:	701a      	strb	r2, [r3, #0]
 80037c0:	1dfb      	adds	r3, r7, #7
 80037c2:	781b      	ldrb	r3, [r3, #0]
 80037c4:	2b3a      	cmp	r3, #58	; 0x3a
 80037c6:	d102      	bne.n	80037ce <readHeader+0x1a>
 80037c8:	4b02      	ldr	r3, [pc, #8]	; (80037d4 <readHeader+0x20>)
 80037ca:	4a03      	ldr	r2, [pc, #12]	; (80037d8 <readHeader+0x24>)
 80037cc:	601a      	str	r2, [r3, #0]
 80037ce:	46bd      	mov	sp, r7
 80037d0:	b002      	add	sp, #8
 80037d2:	bd80      	pop	{r7, pc}
 80037d4:	20000134 	.word	0x20000134
 80037d8:	080037dd 	.word	0x080037dd

080037dc <readCommand>:
 80037dc:	b580      	push	{r7, lr}
 80037de:	b082      	sub	sp, #8
 80037e0:	af00      	add	r7, sp, #0
 80037e2:	1c02      	adds	r2, r0, #0
 80037e4:	1dfb      	adds	r3, r7, #7
 80037e6:	701a      	strb	r2, [r3, #0]
 80037e8:	4b07      	ldr	r3, [pc, #28]	; (8003808 <readCommand+0x2c>)
 80037ea:	1dfa      	adds	r2, r7, #7
 80037ec:	7812      	ldrb	r2, [r2, #0]
 80037ee:	701a      	strb	r2, [r3, #0]
 80037f0:	4b06      	ldr	r3, [pc, #24]	; (800380c <readCommand+0x30>)
 80037f2:	4a07      	ldr	r2, [pc, #28]	; (8003810 <readCommand+0x34>)
 80037f4:	601a      	str	r2, [r3, #0]
 80037f6:	4b07      	ldr	r3, [pc, #28]	; (8003814 <readCommand+0x38>)
 80037f8:	2200      	movs	r2, #0
 80037fa:	701a      	strb	r2, [r3, #0]
 80037fc:	4b02      	ldr	r3, [pc, #8]	; (8003808 <readCommand+0x2c>)
 80037fe:	2200      	movs	r2, #0
 8003800:	605a      	str	r2, [r3, #4]
 8003802:	46bd      	mov	sp, r7
 8003804:	b002      	add	sp, #8
 8003806:	bd80      	pop	{r7, pc}
 8003808:	20000090 	.word	0x20000090
 800380c:	20000134 	.word	0x20000134
 8003810:	08003819 	.word	0x08003819
 8003814:	20000130 	.word	0x20000130

08003818 <readArg>:
 8003818:	b590      	push	{r4, r7, lr}
 800381a:	b085      	sub	sp, #20
 800381c:	af00      	add	r7, sp, #0
 800381e:	1c02      	adds	r2, r0, #0
 8003820:	1dfb      	adds	r3, r7, #7
 8003822:	701a      	strb	r2, [r3, #0]
 8003824:	4b17      	ldr	r3, [pc, #92]	; (8003884 <readArg+0x6c>)
 8003826:	781a      	ldrb	r2, [r3, #0]
 8003828:	1c3b      	adds	r3, r7, #0
 800382a:	330f      	adds	r3, #15
 800382c:	2104      	movs	r1, #4
 800382e:	1a8a      	subs	r2, r1, r2
 8003830:	701a      	strb	r2, [r3, #0]
 8003832:	4b15      	ldr	r3, [pc, #84]	; (8003888 <readArg+0x70>)
 8003834:	685a      	ldr	r2, [r3, #4]
 8003836:	1c3b      	adds	r3, r7, #0
 8003838:	330f      	adds	r3, #15
 800383a:	781b      	ldrb	r3, [r3, #0]
 800383c:	21ff      	movs	r1, #255	; 0xff
 800383e:	1c08      	adds	r0, r1, #0
 8003840:	4098      	lsls	r0, r3
 8003842:	1c03      	adds	r3, r0, #0
 8003844:	1df9      	adds	r1, r7, #7
 8003846:	7808      	ldrb	r0, [r1, #0]
 8003848:	1c39      	adds	r1, r7, #0
 800384a:	310f      	adds	r1, #15
 800384c:	7809      	ldrb	r1, [r1, #0]
 800384e:	1c04      	adds	r4, r0, #0
 8003850:	408c      	lsls	r4, r1
 8003852:	1c21      	adds	r1, r4, #0
 8003854:	400b      	ands	r3, r1
 8003856:	431a      	orrs	r2, r3
 8003858:	4b0b      	ldr	r3, [pc, #44]	; (8003888 <readArg+0x70>)
 800385a:	605a      	str	r2, [r3, #4]
 800385c:	4b09      	ldr	r3, [pc, #36]	; (8003884 <readArg+0x6c>)
 800385e:	781b      	ldrb	r3, [r3, #0]
 8003860:	3301      	adds	r3, #1
 8003862:	b2da      	uxtb	r2, r3
 8003864:	4b07      	ldr	r3, [pc, #28]	; (8003884 <readArg+0x6c>)
 8003866:	701a      	strb	r2, [r3, #0]
 8003868:	4b06      	ldr	r3, [pc, #24]	; (8003884 <readArg+0x6c>)
 800386a:	781b      	ldrb	r3, [r3, #0]
 800386c:	2b03      	cmp	r3, #3
 800386e:	d905      	bls.n	800387c <readArg+0x64>
 8003870:	4b06      	ldr	r3, [pc, #24]	; (800388c <readArg+0x74>)
 8003872:	2201      	movs	r2, #1
 8003874:	701a      	strb	r2, [r3, #0]
 8003876:	4b06      	ldr	r3, [pc, #24]	; (8003890 <readArg+0x78>)
 8003878:	4a06      	ldr	r2, [pc, #24]	; (8003894 <readArg+0x7c>)
 800387a:	601a      	str	r2, [r3, #0]
 800387c:	46bd      	mov	sp, r7
 800387e:	b005      	add	sp, #20
 8003880:	bd90      	pop	{r4, r7, pc}
 8003882:	46c0      	nop			; (mov r8, r8)
 8003884:	20000130 	.word	0x20000130
 8003888:	20000090 	.word	0x20000090
 800388c:	20000098 	.word	0x20000098
 8003890:	20000134 	.word	0x20000134
 8003894:	080037b5 	.word	0x080037b5

08003898 <memcpy>:
 8003898:	b5f0      	push	{r4, r5, r6, r7, lr}
 800389a:	2a0f      	cmp	r2, #15
 800389c:	d935      	bls.n	800390a <memcpy+0x72>
 800389e:	1c03      	adds	r3, r0, #0
 80038a0:	430b      	orrs	r3, r1
 80038a2:	079c      	lsls	r4, r3, #30
 80038a4:	d135      	bne.n	8003912 <memcpy+0x7a>
 80038a6:	1c16      	adds	r6, r2, #0
 80038a8:	3e10      	subs	r6, #16
 80038aa:	0936      	lsrs	r6, r6, #4
 80038ac:	0135      	lsls	r5, r6, #4
 80038ae:	1945      	adds	r5, r0, r5
 80038b0:	3510      	adds	r5, #16
 80038b2:	1c0c      	adds	r4, r1, #0
 80038b4:	1c03      	adds	r3, r0, #0
 80038b6:	6827      	ldr	r7, [r4, #0]
 80038b8:	601f      	str	r7, [r3, #0]
 80038ba:	6867      	ldr	r7, [r4, #4]
 80038bc:	605f      	str	r7, [r3, #4]
 80038be:	68a7      	ldr	r7, [r4, #8]
 80038c0:	609f      	str	r7, [r3, #8]
 80038c2:	68e7      	ldr	r7, [r4, #12]
 80038c4:	3410      	adds	r4, #16
 80038c6:	60df      	str	r7, [r3, #12]
 80038c8:	3310      	adds	r3, #16
 80038ca:	42ab      	cmp	r3, r5
 80038cc:	d1f3      	bne.n	80038b6 <memcpy+0x1e>
 80038ce:	1c73      	adds	r3, r6, #1
 80038d0:	011b      	lsls	r3, r3, #4
 80038d2:	18c5      	adds	r5, r0, r3
 80038d4:	18c9      	adds	r1, r1, r3
 80038d6:	230f      	movs	r3, #15
 80038d8:	4013      	ands	r3, r2
 80038da:	2b03      	cmp	r3, #3
 80038dc:	d91b      	bls.n	8003916 <memcpy+0x7e>
 80038de:	1f1c      	subs	r4, r3, #4
 80038e0:	08a4      	lsrs	r4, r4, #2
 80038e2:	3401      	adds	r4, #1
 80038e4:	00a4      	lsls	r4, r4, #2
 80038e6:	2300      	movs	r3, #0
 80038e8:	58ce      	ldr	r6, [r1, r3]
 80038ea:	50ee      	str	r6, [r5, r3]
 80038ec:	3304      	adds	r3, #4
 80038ee:	42a3      	cmp	r3, r4
 80038f0:	d1fa      	bne.n	80038e8 <memcpy+0x50>
 80038f2:	18ed      	adds	r5, r5, r3
 80038f4:	18c9      	adds	r1, r1, r3
 80038f6:	2303      	movs	r3, #3
 80038f8:	401a      	ands	r2, r3
 80038fa:	d005      	beq.n	8003908 <memcpy+0x70>
 80038fc:	2300      	movs	r3, #0
 80038fe:	5ccc      	ldrb	r4, [r1, r3]
 8003900:	54ec      	strb	r4, [r5, r3]
 8003902:	3301      	adds	r3, #1
 8003904:	4293      	cmp	r3, r2
 8003906:	d1fa      	bne.n	80038fe <memcpy+0x66>
 8003908:	bdf0      	pop	{r4, r5, r6, r7, pc}
 800390a:	1c05      	adds	r5, r0, #0
 800390c:	2a00      	cmp	r2, #0
 800390e:	d1f5      	bne.n	80038fc <memcpy+0x64>
 8003910:	e7fa      	b.n	8003908 <memcpy+0x70>
 8003912:	1c05      	adds	r5, r0, #0
 8003914:	e7f2      	b.n	80038fc <memcpy+0x64>
 8003916:	1c1a      	adds	r2, r3, #0
 8003918:	e7f8      	b.n	800390c <memcpy+0x74>
 800391a:	46c0      	nop			; (mov r8, r8)
 800391c:	2e2f2e2e 	.word	0x2e2f2e2e
 8003920:	78652f2e 	.word	0x78652f2e
 8003924:	72732d74 	.word	0x72732d74
 8003928:	54532f63 	.word	0x54532f63
 800392c:	4632334d 	.word	0x4632334d
 8003930:	5f787830 	.word	0x5f787830
 8003934:	50647453 	.word	0x50647453
 8003938:	70697265 	.word	0x70697265
 800393c:	72445f68 	.word	0x72445f68
 8003940:	72657669 	.word	0x72657669
 8003944:	6372732f 	.word	0x6372732f
 8003948:	6d74732f 	.word	0x6d74732f
 800394c:	30663233 	.word	0x30663233
 8003950:	725f7878 	.word	0x725f7878
 8003954:	632e6363 	.word	0x632e6363
 8003958:	00000000 	.word	0x00000000
 800395c:	2e2f2e2e 	.word	0x2e2f2e2e
 8003960:	78652f2e 	.word	0x78652f2e
 8003964:	72732d74 	.word	0x72732d74
 8003968:	54532f63 	.word	0x54532f63
 800396c:	4632334d 	.word	0x4632334d
 8003970:	5f787830 	.word	0x5f787830
 8003974:	50647453 	.word	0x50647453
 8003978:	70697265 	.word	0x70697265
 800397c:	72445f68 	.word	0x72445f68
 8003980:	72657669 	.word	0x72657669
 8003984:	6372732f 	.word	0x6372732f
 8003988:	6d74732f 	.word	0x6d74732f
 800398c:	30663233 	.word	0x30663233
 8003990:	675f7878 	.word	0x675f7878
 8003994:	2e6f6970 	.word	0x2e6f6970
 8003998:	00000063 	.word	0x00000063
 800399c:	2e2f2e2e 	.word	0x2e2f2e2e
 80039a0:	78652f2e 	.word	0x78652f2e
 80039a4:	72732d74 	.word	0x72732d74
 80039a8:	54532f63 	.word	0x54532f63
 80039ac:	4632334d 	.word	0x4632334d
 80039b0:	5f787830 	.word	0x5f787830
 80039b4:	50647453 	.word	0x50647453
 80039b8:	70697265 	.word	0x70697265
 80039bc:	72445f68 	.word	0x72445f68
 80039c0:	72657669 	.word	0x72657669
 80039c4:	6372732f 	.word	0x6372732f
 80039c8:	6d74732f 	.word	0x6d74732f
 80039cc:	30663233 	.word	0x30663233
 80039d0:	6d5f7878 	.word	0x6d5f7878
 80039d4:	2e637369 	.word	0x2e637369
 80039d8:	00000063 	.word	0x00000063
 80039dc:	2e2f2e2e 	.word	0x2e2f2e2e
 80039e0:	78652f2e 	.word	0x78652f2e
 80039e4:	72732d74 	.word	0x72732d74
 80039e8:	54532f63 	.word	0x54532f63
 80039ec:	4632334d 	.word	0x4632334d
 80039f0:	5f787830 	.word	0x5f787830
 80039f4:	50647453 	.word	0x50647453
 80039f8:	70697265 	.word	0x70697265
 80039fc:	72445f68 	.word	0x72445f68
 8003a00:	72657669 	.word	0x72657669
 8003a04:	6372732f 	.word	0x6372732f
 8003a08:	6d74732f 	.word	0x6d74732f
 8003a0c:	30663233 	.word	0x30663233
 8003a10:	665f7878 	.word	0x665f7878
 8003a14:	6873616c 	.word	0x6873616c
 8003a18:	0000632e 	.word	0x0000632e
 8003a1c:	2e2f2e2e 	.word	0x2e2f2e2e
 8003a20:	78652f2e 	.word	0x78652f2e
 8003a24:	72732d74 	.word	0x72732d74
 8003a28:	54532f63 	.word	0x54532f63
 8003a2c:	4632334d 	.word	0x4632334d
 8003a30:	5f787830 	.word	0x5f787830
 8003a34:	50647453 	.word	0x50647453
 8003a38:	70697265 	.word	0x70697265
 8003a3c:	72445f68 	.word	0x72445f68
 8003a40:	72657669 	.word	0x72657669
 8003a44:	6372732f 	.word	0x6372732f
 8003a48:	6d74732f 	.word	0x6d74732f
 8003a4c:	30663233 	.word	0x30663233
 8003a50:	745f7878 	.word	0x745f7878
 8003a54:	632e6d69 	.word	0x632e6d69
 8003a58:	00000000 	.word	0x00000000
 8003a5c:	2e2f2e2e 	.word	0x2e2f2e2e
 8003a60:	78652f2e 	.word	0x78652f2e
 8003a64:	72732d74 	.word	0x72732d74
 8003a68:	54532f63 	.word	0x54532f63
 8003a6c:	4632334d 	.word	0x4632334d
 8003a70:	5f787830 	.word	0x5f787830
 8003a74:	50647453 	.word	0x50647453
 8003a78:	70697265 	.word	0x70697265
 8003a7c:	72445f68 	.word	0x72445f68
 8003a80:	72657669 	.word	0x72657669
 8003a84:	6372732f 	.word	0x6372732f
 8003a88:	6d74732f 	.word	0x6d74732f
 8003a8c:	30663233 	.word	0x30663233
 8003a90:	645f7878 	.word	0x645f7878
 8003a94:	632e616d 	.word	0x632e616d
 8003a98:	00000000 	.word	0x00000000
 8003a9c:	2e2f2e2e 	.word	0x2e2f2e2e
 8003aa0:	78652f2e 	.word	0x78652f2e
 8003aa4:	72732d74 	.word	0x72732d74
 8003aa8:	54532f63 	.word	0x54532f63
 8003aac:	4632334d 	.word	0x4632334d
 8003ab0:	5f787830 	.word	0x5f787830
 8003ab4:	50647453 	.word	0x50647453
 8003ab8:	70697265 	.word	0x70697265
 8003abc:	72445f68 	.word	0x72445f68
 8003ac0:	72657669 	.word	0x72657669
 8003ac4:	6372732f 	.word	0x6372732f
 8003ac8:	6d74732f 	.word	0x6d74732f
 8003acc:	30663233 	.word	0x30663233
 8003ad0:	755f7878 	.word	0x755f7878
 8003ad4:	74726173 	.word	0x74726173
 8003ad8:	0000632e 	.word	0x0000632e
