   1              		.cpu cortex-m0
   2              		.fpu softvfp
   3              		.eabi_attribute 20, 1
   4              		.eabi_attribute 21, 1
   5              		.eabi_attribute 23, 3
   6              		.eabi_attribute 24, 1
   7              		.eabi_attribute 25, 1
   8              		.eabi_attribute 26, 1
   9              		.eabi_attribute 30, 6
  10              		.eabi_attribute 34, 0
  11              		.eabi_attribute 18, 4
  12              		.code	16
  13              		.file	"USART1.c"
  14              		.text
  15              	.Ltext0:
  16              		.cfi_sections	.debug_frame
  17              		.section	.bss.receivedByteCallback,"aw",%nobits
  18              		.align	2
  21              	receivedByteCallback:
  22 0000 00000000 		.space	4
  23              		.section	.text.USART1_init,"ax",%progbits
  24              		.align	2
  25              		.global	USART1_init
  26              		.code	16
  27              		.thumb_func
  29              	USART1_init:
  30              	.LFB32:
  31              		.file 1 "../../src/driver/USART/USART1.c"
   1:../../src/driver/USART/USART1.c **** /*
   2:../../src/driver/USART/USART1.c ****  * USART1.c
   3:../../src/driver/USART/USART1.c ****  *
   4:../../src/driver/USART/USART1.c ****  *  Created on: Jul 15, 2014
   5:../../src/driver/USART/USART1.c ****  *      Author: jonasbachli
   6:../../src/driver/USART/USART1.c ****  */
   7:../../src/driver/USART/USART1.c **** 
   8:../../src/driver/USART/USART1.c **** #include "USART1.h"
   9:../../src/driver/USART/USART1.c **** 
  10:../../src/driver/USART/USART1.c **** #include <stm32f0xx_usart.h>
  11:../../src/driver/USART/USART1.c **** #include <stm32f0xx_rcc.h>
  12:../../src/driver/USART/USART1.c **** #include <stm32f0xx_gpio.h>
  13:../../src/driver/USART/USART1.c **** 
  14:../../src/driver/USART/USART1.c **** /////////////////////////////////////
  15:../../src/driver/USART/USART1.c **** // forward declarations
  16:../../src/driver/USART/USART1.c **** /////////////////////////////////////
  17:../../src/driver/USART/USART1.c **** 
  18:../../src/driver/USART/USART1.c **** /////////////////////////////////////
  19:../../src/driver/USART/USART1.c **** // private variables
  20:../../src/driver/USART/USART1.c **** /////////////////////////////////////
  21:../../src/driver/USART/USART1.c **** 
  22:../../src/driver/USART/USART1.c **** static USART_receivedByteCbFct receivedByteCallback = 0;
  23:../../src/driver/USART/USART1.c **** 
  24:../../src/driver/USART/USART1.c **** /////////////////////////////////////
  25:../../src/driver/USART/USART1.c **** // public functions
  26:../../src/driver/USART/USART1.c **** /////////////////////////////////////
  27:../../src/driver/USART/USART1.c **** 
  28:../../src/driver/USART/USART1.c **** void USART1_init(void) {
  32              		.loc 1 28 0
  33              		.cfi_startproc
  34 0000 80B5     		push	{r7, lr}
  35              		.cfi_def_cfa_offset 8
  36              		.cfi_offset 7, -8
  37              		.cfi_offset 14, -4
  38 0002 8AB0     		sub	sp, sp, #40
  39              		.cfi_def_cfa_offset 48
  40 0004 00AF     		add	r7, sp, #0
  41              		.cfi_def_cfa_register 7
  29:../../src/driver/USART/USART1.c **** 	GPIO_InitTypeDef gpioInit;
  30:../../src/driver/USART/USART1.c **** 	USART_InitTypeDef usartInit;
  31:../../src/driver/USART/USART1.c **** 	NVIC_InitTypeDef nvicInit;
  32:../../src/driver/USART/USART1.c **** 
  33:../../src/driver/USART/USART1.c **** 	RCC_APB2PeriphClockCmd(RCC_APB2Periph_USART1, ENABLE);
  42              		.loc 1 33 0
  43 0006 8023     		mov	r3, #128
  44 0008 DB01     		lsl	r3, r3, #7
  45 000a 181C     		mov	r0, r3
  46 000c 0121     		mov	r1, #1
  47 000e FFF7FEFF 		bl	RCC_APB2PeriphClockCmd
  34:../../src/driver/USART/USART1.c **** 	RCC_AHBPeriphClockCmd(RCC_AHBPeriph_GPIOA, ENABLE);
  48              		.loc 1 34 0
  49 0012 8023     		mov	r3, #128
  50 0014 9B02     		lsl	r3, r3, #10
  51 0016 181C     		mov	r0, r3
  52 0018 0121     		mov	r1, #1
  53 001a FFF7FEFF 		bl	RCC_AHBPeriphClockCmd
  35:../../src/driver/USART/USART1.c **** 
  36:../../src/driver/USART/USART1.c **** 	GPIO_PinAFConfig(GPIOA, GPIO_PinSource9, GPIO_AF_1);
  54              		.loc 1 36 0
  55 001e 9023     		mov	r3, #144
  56 0020 DB05     		lsl	r3, r3, #23
  57 0022 181C     		mov	r0, r3
  58 0024 0921     		mov	r1, #9
  59 0026 0122     		mov	r2, #1
  60 0028 FFF7FEFF 		bl	GPIO_PinAFConfig
  37:../../src/driver/USART/USART1.c **** 	GPIO_PinAFConfig(GPIOA, GPIO_PinSource10, GPIO_AF_1);
  61              		.loc 1 37 0
  62 002c 9023     		mov	r3, #144
  63 002e DB05     		lsl	r3, r3, #23
  64 0030 181C     		mov	r0, r3
  65 0032 0A21     		mov	r1, #10
  66 0034 0122     		mov	r2, #1
  67 0036 FFF7FEFF 		bl	GPIO_PinAFConfig
  38:../../src/driver/USART/USART1.c **** 
  39:../../src/driver/USART/USART1.c **** 	gpioInit.GPIO_Mode = GPIO_Mode_AF;
  68              		.loc 1 39 0
  69 003a 3B1C     		mov	r3, r7
  70 003c 2033     		add	r3, r3, #32
  71 003e 0222     		mov	r2, #2
  72 0040 1A71     		strb	r2, [r3, #4]
  40:../../src/driver/USART/USART1.c **** 	gpioInit.GPIO_OType = GPIO_OType_PP;
  73              		.loc 1 40 0
  74 0042 3B1C     		mov	r3, r7
  75 0044 2033     		add	r3, r3, #32
  76 0046 0022     		mov	r2, #0
  77 0048 9A71     		strb	r2, [r3, #6]
  41:../../src/driver/USART/USART1.c **** 	gpioInit.GPIO_Pin = GPIO_Pin_9 | GPIO_Pin_10;
  78              		.loc 1 41 0
  79 004a 3B1C     		mov	r3, r7
  80 004c 2033     		add	r3, r3, #32
  81 004e C022     		mov	r2, #192
  82 0050 D200     		lsl	r2, r2, #3
  83 0052 1A60     		str	r2, [r3]
  42:../../src/driver/USART/USART1.c **** 	gpioInit.GPIO_PuPd = GPIO_PuPd_UP;
  84              		.loc 1 42 0
  85 0054 3B1C     		mov	r3, r7
  86 0056 2033     		add	r3, r3, #32
  87 0058 0122     		mov	r2, #1
  88 005a DA71     		strb	r2, [r3, #7]
  43:../../src/driver/USART/USART1.c **** 	gpioInit.GPIO_Speed = GPIO_Speed_50MHz;
  89              		.loc 1 43 0
  90 005c 3B1C     		mov	r3, r7
  91 005e 2033     		add	r3, r3, #32
  92 0060 0322     		mov	r2, #3
  93 0062 5A71     		strb	r2, [r3, #5]
  44:../../src/driver/USART/USART1.c **** 	GPIO_Init(GPIOA, &gpioInit);
  94              		.loc 1 44 0
  95 0064 9023     		mov	r3, #144
  96 0066 DA05     		lsl	r2, r3, #23
  97 0068 3B1C     		mov	r3, r7
  98 006a 2033     		add	r3, r3, #32
  99 006c 101C     		mov	r0, r2
 100 006e 191C     		mov	r1, r3
 101 0070 FFF7FEFF 		bl	GPIO_Init
  45:../../src/driver/USART/USART1.c **** 
  46:../../src/driver/USART/USART1.c **** 	usartInit.USART_BaudRate = 38400;
 102              		.loc 1 46 0
 103 0074 3B1C     		mov	r3, r7
 104 0076 0833     		add	r3, r3, #8
 105 0078 9622     		mov	r2, #150
 106 007a 1202     		lsl	r2, r2, #8
 107 007c 1A60     		str	r2, [r3]
  47:../../src/driver/USART/USART1.c **** 	usartInit.USART_HardwareFlowControl = USART_HardwareFlowControl_None;
 108              		.loc 1 47 0
 109 007e 3B1C     		mov	r3, r7
 110 0080 0833     		add	r3, r3, #8
 111 0082 0022     		mov	r2, #0
 112 0084 5A61     		str	r2, [r3, #20]
  48:../../src/driver/USART/USART1.c **** 	usartInit.USART_Mode = USART_Mode_Rx | USART_Mode_Tx;
 113              		.loc 1 48 0
 114 0086 3B1C     		mov	r3, r7
 115 0088 0833     		add	r3, r3, #8
 116 008a 0C22     		mov	r2, #12
 117 008c 1A61     		str	r2, [r3, #16]
  49:../../src/driver/USART/USART1.c **** 	usartInit.USART_Parity = USART_Parity_No;
 118              		.loc 1 49 0
 119 008e 3B1C     		mov	r3, r7
 120 0090 0833     		add	r3, r3, #8
 121 0092 0022     		mov	r2, #0
 122 0094 DA60     		str	r2, [r3, #12]
  50:../../src/driver/USART/USART1.c **** 	usartInit.USART_StopBits = USART_StopBits_1;
 123              		.loc 1 50 0
 124 0096 3B1C     		mov	r3, r7
 125 0098 0833     		add	r3, r3, #8
 126 009a 0022     		mov	r2, #0
 127 009c 9A60     		str	r2, [r3, #8]
  51:../../src/driver/USART/USART1.c **** 	usartInit.USART_WordLength = USART_WordLength_8b;
 128              		.loc 1 51 0
 129 009e 3B1C     		mov	r3, r7
 130 00a0 0833     		add	r3, r3, #8
 131 00a2 0022     		mov	r2, #0
 132 00a4 5A60     		str	r2, [r3, #4]
  52:../../src/driver/USART/USART1.c **** 	USART_Init(USART1, &usartInit);
 133              		.loc 1 52 0
 134 00a6 114A     		ldr	r2, .L2
 135 00a8 3B1C     		mov	r3, r7
 136 00aa 0833     		add	r3, r3, #8
 137 00ac 101C     		mov	r0, r2
 138 00ae 191C     		mov	r1, r3
 139 00b0 FFF7FEFF 		bl	USART_Init
  53:../../src/driver/USART/USART1.c **** 
  54:../../src/driver/USART/USART1.c **** 	USART_ITConfig(USART1, USART_IT_RXNE, ENABLE);
 140              		.loc 1 54 0
 141 00b4 0D4A     		ldr	r2, .L2
 142 00b6 0E4B     		ldr	r3, .L2+4
 143 00b8 101C     		mov	r0, r2
 144 00ba 191C     		mov	r1, r3
 145 00bc 0122     		mov	r2, #1
 146 00be FFF7FEFF 		bl	USART_ITConfig
  55:../../src/driver/USART/USART1.c **** 
  56:../../src/driver/USART/USART1.c **** 	nvicInit.NVIC_IRQChannel = USART1_IRQn;
 147              		.loc 1 56 0
 148 00c2 3B1D     		add	r3, r7, #4
 149 00c4 1B22     		mov	r2, #27
 150 00c6 1A70     		strb	r2, [r3]
  57:../../src/driver/USART/USART1.c **** 	nvicInit.NVIC_IRQChannelPriority = 1;
 151              		.loc 1 57 0
 152 00c8 3B1D     		add	r3, r7, #4
 153 00ca 0122     		mov	r2, #1
 154 00cc 5A70     		strb	r2, [r3, #1]
  58:../../src/driver/USART/USART1.c **** 	nvicInit.NVIC_IRQChannelCmd = ENABLE;
 155              		.loc 1 58 0
 156 00ce 3B1D     		add	r3, r7, #4
 157 00d0 0122     		mov	r2, #1
 158 00d2 9A70     		strb	r2, [r3, #2]
  59:../../src/driver/USART/USART1.c **** 	NVIC_Init(&nvicInit);
 159              		.loc 1 59 0
 160 00d4 3B1D     		add	r3, r7, #4
 161 00d6 181C     		mov	r0, r3
 162 00d8 FFF7FEFF 		bl	NVIC_Init
  60:../../src/driver/USART/USART1.c **** 
  61:../../src/driver/USART/USART1.c **** 	USART_Cmd(USART1, ENABLE);
 163              		.loc 1 61 0
 164 00dc 034B     		ldr	r3, .L2
 165 00de 181C     		mov	r0, r3
 166 00e0 0121     		mov	r1, #1
 167 00e2 FFF7FEFF 		bl	USART_Cmd
  62:../../src/driver/USART/USART1.c **** }
 168              		.loc 1 62 0
 169 00e6 BD46     		mov	sp, r7
 170 00e8 0AB0     		add	sp, sp, #40
 171              		@ sp needed
 172 00ea 80BD     		pop	{r7, pc}
 173              	.L3:
 174              		.align	2
 175              	.L2:
 176 00ec 00380140 		.word	1073821696
 177 00f0 05010500 		.word	327941
 178              		.cfi_endproc
 179              	.LFE32:
 181              		.section	.text.USART1_setByteReceivedCallback,"ax",%progbits
 182              		.align	2
 183              		.global	USART1_setByteReceivedCallback
 184              		.code	16
 185              		.thumb_func
 187              	USART1_setByteReceivedCallback:
 188              	.LFB33:
  63:../../src/driver/USART/USART1.c **** 
  64:../../src/driver/USART/USART1.c **** void USART1_setByteReceivedCallback(USART_receivedByteCbFct receivedByteCB) {
 189              		.loc 1 64 0
 190              		.cfi_startproc
 191 0000 80B5     		push	{r7, lr}
 192              		.cfi_def_cfa_offset 8
 193              		.cfi_offset 7, -8
 194              		.cfi_offset 14, -4
 195 0002 82B0     		sub	sp, sp, #8
 196              		.cfi_def_cfa_offset 16
 197 0004 00AF     		add	r7, sp, #0
 198              		.cfi_def_cfa_register 7
 199 0006 7860     		str	r0, [r7, #4]
  65:../../src/driver/USART/USART1.c **** 	receivedByteCallback = receivedByteCB;
 200              		.loc 1 65 0
 201 0008 024B     		ldr	r3, .L5
 202 000a 7A68     		ldr	r2, [r7, #4]
 203 000c 1A60     		str	r2, [r3]
  66:../../src/driver/USART/USART1.c **** }
 204              		.loc 1 66 0
 205 000e BD46     		mov	sp, r7
 206 0010 02B0     		add	sp, sp, #8
 207              		@ sp needed
 208 0012 80BD     		pop	{r7, pc}
 209              	.L6:
 210              		.align	2
 211              	.L5:
 212 0014 00000000 		.word	receivedByteCallback
 213              		.cfi_endproc
 214              	.LFE33:
 216              		.section	.text.USART1_sendByte,"ax",%progbits
 217              		.align	2
 218              		.global	USART1_sendByte
 219              		.code	16
 220              		.thumb_func
 222              	USART1_sendByte:
 223              	.LFB34:
  67:../../src/driver/USART/USART1.c **** 
  68:../../src/driver/USART/USART1.c **** void USART1_sendByte(uint8_t data) {
 224              		.loc 1 68 0
 225              		.cfi_startproc
 226 0000 80B5     		push	{r7, lr}
 227              		.cfi_def_cfa_offset 8
 228              		.cfi_offset 7, -8
 229              		.cfi_offset 14, -4
 230 0002 82B0     		sub	sp, sp, #8
 231              		.cfi_def_cfa_offset 16
 232 0004 00AF     		add	r7, sp, #0
 233              		.cfi_def_cfa_register 7
 234 0006 021C     		mov	r2, r0
 235 0008 FB1D     		add	r3, r7, #7
 236 000a 1A70     		strb	r2, [r3]
  69:../../src/driver/USART/USART1.c **** 	while (USART_GetFlagStatus(USART1, USART_FLAG_TXE) == RESET)
 237              		.loc 1 69 0
 238 000c C046     		mov	r8, r8
 239              	.L8:
 240              		.loc 1 69 0 is_stmt 0 discriminator 1
 241 000e 094B     		ldr	r3, .L9
 242 0010 181C     		mov	r0, r3
 243 0012 8021     		mov	r1, #128
 244 0014 FFF7FEFF 		bl	USART_GetFlagStatus
 245 0018 031C     		mov	r3, r0
 246 001a 002B     		cmp	r3, #0
 247 001c F7D0     		beq	.L8
  70:../../src/driver/USART/USART1.c **** 		;
  71:../../src/driver/USART/USART1.c **** 	USART_SendData(USART1, data);
 248              		.loc 1 71 0 is_stmt 1
 249 001e FB1D     		add	r3, r7, #7
 250 0020 1B78     		ldrb	r3, [r3]
 251 0022 9BB2     		uxth	r3, r3
 252 0024 034A     		ldr	r2, .L9
 253 0026 101C     		mov	r0, r2
 254 0028 191C     		mov	r1, r3
 255 002a FFF7FEFF 		bl	USART_SendData
  72:../../src/driver/USART/USART1.c **** }
 256              		.loc 1 72 0
 257 002e BD46     		mov	sp, r7
 258 0030 02B0     		add	sp, sp, #8
 259              		@ sp needed
 260 0032 80BD     		pop	{r7, pc}
 261              	.L10:
 262              		.align	2
 263              	.L9:
 264 0034 00380140 		.word	1073821696
 265              		.cfi_endproc
 266              	.LFE34:
 268              		.section	.text.USART1_IRQHandler,"ax",%progbits
 269              		.align	2
 270              		.global	USART1_IRQHandler
 271              		.code	16
 272              		.thumb_func
 274              	USART1_IRQHandler:
 275              	.LFB35:
  73:../../src/driver/USART/USART1.c **** 
  74:../../src/driver/USART/USART1.c **** /////////////////////////////////////
  75:../../src/driver/USART/USART1.c **** // private functions
  76:../../src/driver/USART/USART1.c **** /////////////////////////////////////
  77:../../src/driver/USART/USART1.c **** 
  78:../../src/driver/USART/USART1.c **** void USART1_IRQHandler(void) {
 276              		.loc 1 78 0
 277              		.cfi_startproc
 278 0000 80B5     		push	{r7, lr}
 279              		.cfi_def_cfa_offset 8
 280              		.cfi_offset 7, -8
 281              		.cfi_offset 14, -4
 282 0002 82B0     		sub	sp, sp, #8
 283              		.cfi_def_cfa_offset 16
 284 0004 00AF     		add	r7, sp, #0
 285              		.cfi_def_cfa_register 7
  79:../../src/driver/USART/USART1.c **** 	if (USART_GetITStatus(USART1, USART_IT_RXNE) == SET) {
 286              		.loc 1 79 0
 287 0006 104A     		ldr	r2, .L13
 288 0008 104B     		ldr	r3, .L13+4
 289 000a 101C     		mov	r0, r2
 290 000c 191C     		mov	r1, r3
 291 000e FFF7FEFF 		bl	USART_GetITStatus
 292 0012 031C     		mov	r3, r0
 293 0014 012B     		cmp	r3, #1
 294 0016 0ED1     		bne	.L12
 295              	.LBB2:
  80:../../src/driver/USART/USART1.c **** 		uint8_t receivedValue = (uint8_t) USART1->RDR & 0x00ff;
 296              		.loc 1 80 0
 297 0018 0B4B     		ldr	r3, .L13
 298 001a 9B8C     		ldrh	r3, [r3, #36]
 299 001c 9AB2     		uxth	r2, r3
 300 001e FB1D     		add	r3, r7, #7
 301 0020 1A70     		strb	r2, [r3]
  81:../../src/driver/USART/USART1.c **** 
  82:../../src/driver/USART/USART1.c **** 		if (receivedByteCallback) {
 302              		.loc 1 82 0
 303 0022 0B4B     		ldr	r3, .L13+8
 304 0024 1B68     		ldr	r3, [r3]
 305 0026 002B     		cmp	r3, #0
 306 0028 05D0     		beq	.L12
  83:../../src/driver/USART/USART1.c **** 			receivedByteCallback(receivedValue);
 307              		.loc 1 83 0
 308 002a 094B     		ldr	r3, .L13+8
 309 002c 1B68     		ldr	r3, [r3]
 310 002e FA1D     		add	r2, r7, #7
 311 0030 1278     		ldrb	r2, [r2]
 312 0032 101C     		mov	r0, r2
 313 0034 9847     		blx	r3
 314              	.L12:
 315              	.LBE2:
  84:../../src/driver/USART/USART1.c **** 		}
  85:../../src/driver/USART/USART1.c **** 	}
  86:../../src/driver/USART/USART1.c **** 
  87:../../src/driver/USART/USART1.c **** 	USART_ClearFlag(USART1, USART_FLAG_WU | USART_FLAG_CM | USART_FLAG_EOB | USART_FLAG_RTO | USART_FL
 316              		.loc 1 87 0
 317 0036 044A     		ldr	r2, .L13
 318 0038 064B     		ldr	r3, .L13+12
 319 003a 101C     		mov	r0, r2
 320 003c 191C     		mov	r1, r3
 321 003e FFF7FEFF 		bl	USART_ClearFlag
  88:../../src/driver/USART/USART1.c **** }
 322              		.loc 1 88 0
 323 0042 BD46     		mov	sp, r7
 324 0044 02B0     		add	sp, sp, #8
 325              		@ sp needed
 326 0046 80BD     		pop	{r7, pc}
 327              	.L14:
 328              		.align	2
 329              	.L13:
 330 0048 00380140 		.word	1073821696
 331 004c 05010500 		.word	327941
 332 0050 00000000 		.word	receivedByteCallback
 333 0054 5F1B1200 		.word	1186655
 334              		.cfi_endproc
 335              	.LFE35:
 337              		.text
 338              	.Letext0:
 339              		.file 2 "/usr/local/Cellar/arm-none-eabi-gcc/20140609/arm-none-eabi/include/machine/_default_types
 340              		.file 3 "/usr/local/Cellar/arm-none-eabi-gcc/20140609/arm-none-eabi/include/stdint.h"
 341              		.file 4 "../../ext-src/CMSIS/ST/STM32F0xx/Include/stm32f0xx.h"
 342              		.file 5 "../../ext-src/STM32F0xx_StdPeriph_Driver/inc/stm32f0xx_gpio.h"
 343              		.file 6 "../../ext-src/STM32F0xx_StdPeriph_Driver/inc/stm32f0xx_usart.h"
 344              		.file 7 "../../ext-src/STM32F0xx_StdPeriph_Driver/inc/stm32f0xx_misc.h"
 345              		.file 8 "../../src/driver/USART/USART1.h"